###############################################################################
#
# IAR ELF Linker V8.11.3.13950/W32 for ARM                03/Mar/2021  11:53:53
# Copyright 2007-2017 IAR Systems AB.
#
#    Output file  =  
#        D:\project_file\famil_tnb\EWARM\famil_tnb\Exe\famil_tnb.out
#    Map file     =  
#        D:\project_file\famil_tnb\EWARM\famil_tnb\List\famil_tnb.map
#    Command line =  
#        -f C:\Users\GAO'LI~1\AppData\Local\Temp\EW567C.tmp
#        (D:\project_file\famil_tnb\EWARM\famil_tnb\Obj\crc.o
#        D:\project_file\famil_tnb\EWARM\famil_tnb\Obj\croutine.o
#        D:\project_file\famil_tnb\EWARM\famil_tnb\Obj\delay.o
#        D:\project_file\famil_tnb\EWARM\famil_tnb\Obj\dht11.o
#        D:\project_file\famil_tnb\EWARM\famil_tnb\Obj\ds3231.o
#        D:\project_file\famil_tnb\EWARM\famil_tnb\Obj\event_groups.o
#        D:\project_file\famil_tnb\EWARM\famil_tnb\Obj\FramewinDLG.o
#        D:\project_file\famil_tnb\EWARM\famil_tnb\Obj\fsmc.o
#        D:\project_file\famil_tnb\EWARM\famil_tnb\Obj\gpio.o
#        D:\project_file\famil_tnb\EWARM\famil_tnb\Obj\GUI_X_OS.o
#        D:\project_file\famil_tnb\EWARM\famil_tnb\Obj\GUI_X_Touch_Analog.o
#        D:\project_file\famil_tnb\EWARM\famil_tnb\Obj\GUIConf.o
#        D:\project_file\famil_tnb\EWARM\famil_tnb\Obj\heap_4.o
#        D:\project_file\famil_tnb\EWARM\famil_tnb\Obj\i2c.o
#        D:\project_file\famil_tnb\EWARM\famil_tnb\Obj\ILI93xx.o
#        D:\project_file\famil_tnb\EWARM\famil_tnb\Obj\LCDConf_FlexColor_Template.o
#        D:\project_file\famil_tnb\EWARM\famil_tnb\Obj\list.o
#        D:\project_file\famil_tnb\EWARM\famil_tnb\Obj\main.o
#        D:\project_file\famil_tnb\EWARM\famil_tnb\Obj\mylib.o
#        D:\project_file\famil_tnb\EWARM\famil_tnb\Obj\port.o
#        D:\project_file\famil_tnb\EWARM\famil_tnb\Obj\portasm.o
#        D:\project_file\famil_tnb\EWARM\famil_tnb\Obj\queue.o
#        D:\project_file\famil_tnb\EWARM\famil_tnb\Obj\spi.o
#        D:\project_file\famil_tnb\EWARM\famil_tnb\Obj\startup_stm32f407xx.o
#        D:\project_file\famil_tnb\STemWin\Lib\STemWin_CM4_OS_wc16.a
#        D:\project_file\famil_tnb\EWARM\famil_tnb\Obj\stm32f4xx_hal.o
#        D:\project_file\famil_tnb\EWARM\famil_tnb\Obj\stm32f4xx_hal_cortex.o
#        D:\project_file\famil_tnb\EWARM\famil_tnb\Obj\stm32f4xx_hal_crc.o
#        D:\project_file\famil_tnb\EWARM\famil_tnb\Obj\stm32f4xx_hal_dma.o
#        D:\project_file\famil_tnb\EWARM\famil_tnb\Obj\stm32f4xx_hal_dma_ex.o
#        D:\project_file\famil_tnb\EWARM\famil_tnb\Obj\stm32f4xx_hal_exti.o
#        D:\project_file\famil_tnb\EWARM\famil_tnb\Obj\stm32f4xx_hal_flash.o
#        D:\project_file\famil_tnb\EWARM\famil_tnb\Obj\stm32f4xx_hal_flash_ex.o
#        D:\project_file\famil_tnb\EWARM\famil_tnb\Obj\stm32f4xx_hal_flash_ramfunc.o
#        D:\project_file\famil_tnb\EWARM\famil_tnb\Obj\stm32f4xx_hal_gpio.o
#        D:\project_file\famil_tnb\EWARM\famil_tnb\Obj\stm32f4xx_hal_i2c.o
#        D:\project_file\famil_tnb\EWARM\famil_tnb\Obj\stm32f4xx_hal_i2c_ex.o
#        D:\project_file\famil_tnb\EWARM\famil_tnb\Obj\stm32f4xx_hal_msp.o
#        D:\project_file\famil_tnb\EWARM\famil_tnb\Obj\stm32f4xx_hal_pwr.o
#        D:\project_file\famil_tnb\EWARM\famil_tnb\Obj\stm32f4xx_hal_pwr_ex.o
#        D:\project_file\famil_tnb\EWARM\famil_tnb\Obj\stm32f4xx_hal_rcc.o
#        D:\project_file\famil_tnb\EWARM\famil_tnb\Obj\stm32f4xx_hal_rcc_ex.o
#        D:\project_file\famil_tnb\EWARM\famil_tnb\Obj\stm32f4xx_hal_spi.o
#        D:\project_file\famil_tnb\EWARM\famil_tnb\Obj\stm32f4xx_hal_sram.o
#        D:\project_file\famil_tnb\EWARM\famil_tnb\Obj\stm32f4xx_hal_tim.o
#        D:\project_file\famil_tnb\EWARM\famil_tnb\Obj\stm32f4xx_hal_tim_ex.o
#        D:\project_file\famil_tnb\EWARM\famil_tnb\Obj\stm32f4xx_hal_uart.o
#        D:\project_file\famil_tnb\EWARM\famil_tnb\Obj\stm32f4xx_it.o
#        D:\project_file\famil_tnb\EWARM\famil_tnb\Obj\stm32f4xx_ll_fsmc.o
#        D:\project_file\famil_tnb\EWARM\famil_tnb\Obj\stm32f4xx_ll_gpio.o
#        D:\project_file\famil_tnb\EWARM\famil_tnb\Obj\system_stm32f4xx.o
#        D:\project_file\famil_tnb\EWARM\famil_tnb\Obj\tasks.o
#        D:\project_file\famil_tnb\EWARM\famil_tnb\Obj\timers.o
#        D:\project_file\famil_tnb\EWARM\famil_tnb\Obj\touch.o
#        D:\project_file\famil_tnb\EWARM\famil_tnb\Obj\usart.o
#        D:\project_file\famil_tnb\EWARM\famil_tnb\Obj\w25qxx.o --redirect
#        _Printf=_PrintfFull --redirect _Scanf=_ScanfFull -o
#        D:\project_file\famil_tnb\EWARM\famil_tnb\Exe\famil_tnb.out --map
#        D:\project_file\famil_tnb\EWARM\famil_tnb\List\famil_tnb.map --config
#        D:\project_file\famil_tnb\EWARM/stm32f407xx_flash.icf --semihosting
#        --entry __iar_program_start --vfe --text_out locale)
#
###############################################################################

*******************************************************************************
*** MESSAGES
***

Warning[Lt009]: Inconsistent wchar_t size
            BUTTON.o(STemWin_CM4_OS_wc16.a) and 129 other objects have wchar_t
                      size 16 bits
            crc.o and 79 other objects have wchar_t size 32 bits


*******************************************************************************
*** RUNTIME MODEL ATTRIBUTES
***

CppFlavor       = *
__SystemLibrary = DLib
__dlib_version  = 6


*******************************************************************************
*** HEAP SELECTION
***

The basic heap was selected because no calls to memory allocation
functions were found in the application outside of system library
functions, and there are calls to deallocation functions in the
application.


*******************************************************************************
*** PLACEMENT SUMMARY
***

"A0":  place at 0x08000000 { ro section .intvec };
"P1":  place in [from 0x08000000 to 0x080fffff] { ro };
define block CSTACK with size = 1K, alignment = 8 { };
define block HEAP with size = 512, alignment = 8 { };
"P2":  place in [from 0x20000000 to 0x2001ffff] {
          rw, block CSTACK, block HEAP };
initialize by copy { rw };

  Section                 Kind        Address     Size  Object
  -------                 ----        -------     ----  ------
"A0":                                            0x188
  .intvec                 ro code  0x08000000    0x188  startup_stm32f407xx.o [1]
                                 - 0x08000188    0x188

"P1":                                          0x1ea5b
  .rodata                 const    0x08000188   0x1484  GUI_CursorResource.o [3]
  .text                   ro code  0x0800160c   0x12c0  stm32f4xx_hal_i2c.o [1]
  .text                   ro code  0x080028cc     0xd0  i2c.o [1]
  .text                   ro code  0x0800299c    0x230  stm32f4xx_hal_rcc.o [1]
  .text                   ro code  0x08002bcc      0xc  stm32f4xx_hal.o [1]
  .text                   ro code  0x08002bd8    0x2ce  main.o [1]
  .text                   ro code  0x08002ea6     0x7a  lz77_init_single.o [6]
  .text                   ro code  0x08002f20      0x6  ABImemclr4.o [6]
  .text._ReadRect_16bpp_B16_I
                          ro code  0x08002f26     0x62  GUIDRV_FlexColor_Func66709.o [3]
  .text                   ro code  0x08002f88    0x27c  stm32f4xx_hal_gpio.o [1]
  .text                   ro code  0x08003204     0x4c  stm32f4xx_hal.o [1]
  .text                   ro code  0x08003250     0xee  I64DivMod.o [6]
  .text._GetDevProp       ro code  0x0800333e     0x5a  GUIDRV_FlexColor.o [3]
  .text                   ro code  0x08003398     0x40  stm32f4xx_hal.o [1]
  .text                   ro code  0x080033d8     0x50  crc.o [1]
  .text                   ro code  0x08003428    0x194  gpio.o [1]
  .text                   ro code  0x080035bc    0x13c  fsmc.o [1]
  .text                   ro code  0x080036f8    0x100  spi.o [1]
  .text                   ro code  0x080037f8    0x350  usart.o [1]
  .text                   ro code  0x08003b48    0x884  stm32f4xx_hal_uart.o [1]
  .text                   ro code  0x080043cc    0xb1c  tasks.o [1]
  .text                   ro code  0x08004ee8    0x24c  ds3231.o [1]
  .text                   ro code  0x08005134    0x190  mylib.o [1]
  .text                   ro code  0x080052c4     0x28  printf.o [4]
  .text                   ro code  0x080052ec    0x1a4  dht11.o [1]
  .text.GUI_TOUCH_Exec    ro code  0x08005490     0xa8  GUI_TOUCH_DriverAnalog.o [3]
  .text                   ro code  0x08005538    0xa66  ILI93xx.o [1]
  .text.GUI__MixColors    ro code  0x08005f9e     0x56  GUI__Alpha.o [3]
  .text                   ro code  0x08005ff4    0xef0  touch.o [1]
  .text.GUI_Init          ro code  0x08006ee4     0xfc  GUI_Core.o [3]
  .text.GUI_CURSOR_Show   ro code  0x08006fe0     0x10  GUI_Cursor.o [3]
  .text                   ro code  0x08006ff0     0x88  FramewinDLG.o [1]
  .text.WM_MULTIBUF_Enable
                          ro code  0x08007078     0x20  WM_MULTIBUF.o [3]
  .text.GUI_Delay         ro code  0x08007098     0x6c  GUI_Time.o [3]
  .text                   ro code  0x08007104    0x40c  stm32f4xx_hal_rcc.o [1]
  .text                   ro code  0x08007510     0x32  ABImemset48.o [6]
  .text._ReadRectCust_16bpp
                          ro code  0x08007542     0x3a  GUIDRV_FlexColor.o [3]
  .text                   ro code  0x0800757c    0x15e  stm32f4xx_hal_cortex.o [1]
  .text._ReadRectCust_18bpp
                          ro code  0x080076da     0x3a  GUIDRV_FlexColor.o [3]
  .text                   ro code  0x08007714      0x2  I64DivZer.o [6]
  .text.GUIMONO_IsInFont  ro code  0x08007716     0x36  GUI_CharM.o [3]
  .text                   ro code  0x0800774c     0x48  stm32f4xx_hal_msp.o [1]
  .text                   ro code  0x08007794     0x24  stm32f4xx_hal_crc.o [1]
  .text                   ro code  0x080077b8     0x5c  stm32f4xx_hal_sram.o [1]
  .text                   ro code  0x08007814    0x454  stm32f4xx_hal_spi.o [1]
  .text                   ro code  0x08007c68     0x28  stm32f4xx_hal_dma.o [1]
  .text                   ro code  0x08007c90      0x2  stm32f4xx_hal_uart.o [1]
  .text                   ro code  0x08007c92      0x2  stm32f4xx_hal_uart.o [1]
  .text                   ro code  0x08007c94    0x278  heap_4.o [1]
  .text                   ro code  0x08007f0c     0x66  ABImemset.o [6]
  .text                   ro code  0x08007f72     0x9a  list.o [1]
  .text                   ro code  0x0800800c    0x25c  port.o [1]
  .text                   ro code  0x08008268    0x430  timers.o [1]
  .text                   ro code  0x08008698     0x28  stm32f4xx_hal.o [1]
  .text                   ro code  0x080086c0    0xf72  xprintffull.o [4]
  .text                   ro code  0x08009632     0x1e  xencoding_8859_1.o [4]
  .text                   ro code  0x08009650     0x64  delay.o [1]
  .text                   ro code  0x080096b4     0x18  GUI_X_Touch_Analog.o [1]
  .text.GUI_TOUCH_GetLayer
                          ro code  0x080096cc      0xc  GUI_TOUCH_StoreState.o [3]
  .text.GUI_TOUCH_CalibratePoint
                          ro code  0x080096d8     0x34  GUI_TOUCH_Calibrate.o [3]
  .text.GUI_TOUCH_StoreStateEx
                          ro code  0x0800970c     0x50  GUI_TOUCH.o [3]
  .text                   ro code  0x0800975c    0x298  w25qxx.o [1]
  .text                   ro code  0x080099f4      0x8  abs.o [4]
  .text                   ro code  0x080099fc     0x1a  U32ToDbl.o [5]
  .text._SetReg_B8        ro code  0x08009a16     0x1a  GUIDRV_FlexColor_Func66709.o [3]
  .text                   ro code  0x08009a30    0x102  sqrt.o [5]
  .text._GetRect          ro code  0x08009b32     0x16  GUIDRV_FlexColor.o [3]
  .text                   ro code  0x08009b48     0x3a  DblToS32.o [5]
  .text._DrawVLine        ro code  0x08009b82     0x12  GUIDRV_FlexColor.o [3]
  .text                   ro code  0x08009b94     0x48  FltToDbl.o [5]
  .text                   ro code  0x08009bdc     0x2e  DblCmpLe.o [5]
  .text._DrawBitmap       ro code  0x08009c0a      0xe  GUIDRV_FlexColor.o [3]
  .text                   ro code  0x08009c18     0x2e  DblCmpGe.o [5]
  .text._GetDevProp       ro code  0x08009c46      0xa  GUIDEV_32.o [3]
  .text                   ro code  0x08009c50    0x1a2  DblMul.o [5]
  .text._ReadData         ro code  0x08009df2      0xa  GUIDRV_FlexColor_16bpp_C0B16.o [3]
  .text.GUI__Config       ro code  0x08009dfc     0x98  GUI_Core.o [3]
  .text                   ro code  0x08009e94     0xbc  GUI_X_OS.o [1]
  .text._InitContext      ro code  0x08009f50     0x84  GUI_Core.o [3]
  .text.emWin_LCD_Init    ro code  0x08009fd4     0xa4  LCD.o [3]
  .text.LCD_GetXSizeDisplay
                          ro code  0x0800a078      0xc  LCD_GetEx.o [3]
  .text.LCD_GetYSizeDisplay
                          ro code  0x0800a084      0xc  LCD_GetEx.o [3]
  .text.LCD_GetXSizeMax   ro code  0x0800a090      0x6  LCD_GetEx.o [3]
  .text.LCD_GetYSizeMax   ro code  0x0800a096      0x6  LCD_GetEx.o [3]
  .text.LCD_SetDisplaySize
                          ro code  0x0800a09c      0xc  LCD_GetEx.o [3]
  .text.GUI_SetOrg        ro code  0x0800a0a8     0x40  GUI_Common.o [3]
  .text.WM_Init           ro code  0x0800a0e8     0xf0  WM.o [3]
  .text.GUITASK_CopyContext
                          ro code  0x0800a1d8     0x70  GUI_Task.o [3]
  .text.GUI_CURSOR_ShowEx
                          ro code  0x0800a248     0x38  GUI_Cursor.o [3]
  .text.FRAMEWIN_SetText  ro code  0x0800a280     0x48  FRAMEWIN.o [3]
  .text.FRAMEWIN_SetTitleHeight
                          ro code  0x0800a2c8     0x7e  FRAMEWIN.o [3]
  .text.WM_GetId          ro code  0x0800a346     0x20  WM_Lib.o [3]
  .text.WM_DefaultProc    ro code  0x0800a366     0x48  WM.o [3]
  .text._ReadPixelCust_16bpp
                          ro code  0x0800a3ae      0xa  GUIDRV_FlexColor.o [3]
  .text.WM_GetDesktopWindow
                          ro code  0x0800a3b8     0x18  WM_Lib.o [3]
  .text.GUI_CreateDialogBox
                          ro code  0x0800a3d0     0xb2  DIALOG.o [3]
  .text.GUI_Exec          ro code  0x0800a482     0x12  GUI_Common.o [3]
  .text.GUI_Lock          ro code  0x0800a494     0x78  GUI_Task.o [3]
  .text.GUI_ALLOC_Lock    ro code  0x0800a50c     0x10  GUI_Alloc.o [3]
  .text.GUI_Unlock        ro code  0x0800a51c     0x14  GUI_Task.o [3]
  .text.GUI_ALLOC_Unlock  ro code  0x0800a530     0x10  GUI_Alloc.o [3]
  .text                   ro code  0x0800a540     0xec  stm32f4xx_ll_fsmc.o [1]
  CODE                    ro code  0x0800a62c     0xa8  portasm.o [1]
  .text                   ro code  0x0800a6d4    0x7ac  queue.o [1]
  .text                   ro code  0x0800ae80     0x74  xlocale_c.o [4]
  .text                   ro code  0x0800aef4     0x16  strchr.o [6]
  .text._ReadPixelCust_18bpp
                          ro code  0x0800af0a      0xa  GUIDRV_FlexColor.o [3]
  .text                   ro code  0x0800af14     0x44  xfail_s.o [4]
  .text                   ro code  0x0800af58     0x36  strlen.o [6]
  .text.GUIMONO_GetFontInfo
                          ro code  0x0800af8e      0x6  GUI_CharM.o [3]
  .text                   ro code  0x0800af94     0x58  memchr.o [6]
  .text                   ro code  0x0800afec      0xa  xmbcurmax.o [4]
  .text.GUIPROP_GetFontInfo
                          ro code  0x0800aff6      0x6  GUI_CharP.o [3]
  .text                   ro code  0x0800affc     0xa6  ABImemcpy.o [6]
  .text._Encode           ro code  0x0800b0a2      0x6  GUI_UC_EncodeNone.o [3]
  .text                   ro code  0x0800b0a8     0x70  frexp.o [5]
  .text                   ro code  0x0800b118    0x13a  ldexp.o [5]
  .text._GetIndexMask_8888
                          ro code  0x0800b252      0x6  GUICC_8888.o [3]
  .text                   ro code  0x0800b258     0x22  S32ToDbl.o [5]
  .text._GetIndexMask_M565
                          ro code  0x0800b27a      0x6  GUICC_M565.o [3]
  .text                   ro code  0x0800b280     0xe2  DblSub.o [5]
  .text.LCD_Index2Color_888
                          ro code  0x0800b362      0x2  GUICC_888_Index2Color.o [3]
  .text                   ro code  0x0800b364    0x246  DblDiv.o [5]
  .text.LCD_Index2Color_8888
                          ro code  0x0800b5aa      0x2  GUICC_8888_Index2Color.o [3]
  .text                   ro code  0x0800b5ac     0x28  DblToU32.o [5]
  .text.GUI_TOUCH_TransformPoint
                          ro code  0x0800b5d4     0x70  GUI_TOUCH_Calibrate.o [3]
  .text                   ro code  0x0800b644     0x68  memcmp.o [6]
  .text.GUI_PID_StoreState
                          ro code  0x0800b6ac     0xb8  GUI_PID.o [3]
  .text.GUI_GetVersionString
                          ro code  0x0800b764     0x18  GUI_Common.o [3]
  .text                   ro code  0x0800b77c     0x2c  GUIConf.o [1]
  .text.GUITASK_Init      ro code  0x0800b7a8     0x4c  GUI_Task.o [3]
  .text                   ro code  0x0800b7f4    0x100  LCDConf_FlexColor_Template.o [1]
  .text.GUI__RegisterExit
                          ro code  0x0800b8f4     0x28  GUI_Core.o [3]
  .text.LCD_SetBkColor    ro code  0x0800b91c      0xc  LCD.o [3]
  .text.LCD_SetColor      ro code  0x0800b928      0xc  LCD.o [3]
  .text.LCD_SetClipRectMax
                          ro code  0x0800b934     0x1c  LCD.o [3]
  .text.LCD_InitColors    ro code  0x0800b950     0x3c  LCD_Color.o [3]
  .text.GUI_DEVICE__GetpDriver
                          ro code  0x0800b98c     0x20  GUI_Device.o [3]
  .text.LCD_InitLUT       ro code  0x0800b9ac     0x88  LCD_Color.o [3]
  .text.GUI_SelectLayer   ro code  0x0800ba34     0x38  GUI_SelectLayer.o [3]
  .text.LCD_SetDrawMode   ro code  0x0800ba6c      0xc  LCD.o [3]
  .text.LCD_FillRect      ro code  0x0800ba78     0x58  LCD.o [3]
  .text._GetMaxValue      ro code  0x0800bad0     0x22  LCD_GetEx.o [3]
  .text._Color2Index_8888
                          ro code  0x0800baf2      0x2  GUICC_8888.o [3]
  .text.WM_CreateWindowAsChild
                          ro code  0x0800baf4    0x168  WM.o [3]
  .text.WM_InvalidateWindow
                          ro code  0x0800bc5c      0x6  WM.o [3]
  .text._GetDevFunc_SetRect
                          ro code  0x0800bc62      0x2  GUIDRV_FlexColor.o [3]
  .text.WM__AddCriticalHandle
                          ro code  0x0800bc64     0x10  WM__Private.o [3]
  .text.WM_SelectWindow   ro code  0x0800bc74     0x48  WM.o [3]
  .text.WM_Activate       ro code  0x0800bcbc     0x10  WM.o [3]
  .text                   ro code  0x0800bccc      0xc  memcpy.o [6]
  .text._GetTaskNo        ro code  0x0800bcd8     0x3c  GUI_Task.o [3]
  .text.GUI_CURSOR_SelectEx
                          ro code  0x0800bd14     0xcc  GUI_Cursor.o [3]
  .text._Show             ro code  0x0800bde0     0x30  GUI_Cursor.o [3]
  .text.GUI_ALLOC_LockH   ro code  0x0800be10     0x1c  GUI_Alloc.o [3]
  .text.GUI_ALLOC_UnlockH
                          ro code  0x0800be2c     0x30  GUI_Alloc.o [3]
  .text.GUI__SetText      ro code  0x0800be5c     0x7c  GUI__Private.o [3]
  .text.FRAMEWIN__CalcTitleHeight
                          ro code  0x0800bed8     0x22  FRAMEWIN.o [3]
  .text.FRAMEWIN__UpdatePositions
                          ro code  0x0800befa     0x6e  FRAMEWIN.o [3]
  .text.FRAMEWIN__UpdateButtons
                          ro code  0x0800bf68     0xea  FRAMEWIN__UpdateButtons.o [3]
  .text                   ro code  0x0800c052     0x14  memset.o [6]
  .text.WM_SendMessage    ro code  0x0800c066     0x1e  WM.o [3]
  .text.WM__GetClientRectEx
                          ro code  0x0800c084     0x22  WM__Private.o [3]
  .text.WM_SendToParent   ro code  0x0800c0a6     0x26  WM_Lib.o [3]
  .text.WM_GetClientWindow
                          ro code  0x0800c0cc     0x1a  WM_Lib.o [3]
  .text.WIDGET_OrState    ro code  0x0800c0e6     0x34  WIDGET.o [3]
  .text.WM_ShowWindow     ro code  0x0800c11a     0x32  WM_Lib.o [3]
  .text.WM_DeleteWindow   ro code  0x0800c14c    0x124  WM.o [3]
  .text.WM_SendMessageNoPara
                          ro code  0x0800c270     0x1a  WM_Lib.o [3]
  .text._Log2VisBuffered  ro code  0x0800c28a      0x2  GUI_CharLine.o [3]
  .text.WM_GetFocusedWindow
                          ro code  0x0800c28c     0x20  WM_Lib.o [3]
  .text.GUI_ALLOC_h2p     ro code  0x0800c2ac     0x14  GUI_Alloc.o [3]
  .text.WM_SetFocusOnNextChild
                          ro code  0x0800c2c0     0x64  WM_SetFocusOnNextChild.o [3]
  .text.GUI_Exec1         ro code  0x0800c324     0x40  GUI_Common.o [3]
  .text.GUI_DEVICE_UnlinkTaskDevices
                          ro code  0x0800c364      0x4  GUI_Device.o [3]
  .text.GUI_DEVICE_LinkDevices
                          ro code  0x0800c368     0x10  GUI_Device.o [3]
  .text                   ro code  0x0800c378      0x6  abort.o [4]
  .rodata.str1.1          const    0x0800c37e      0x1  GUI__Private.o [3]
  .text                   ro code  0x0800c380    0x168  DblAdd.o [5]
  .text.GUI_SignalEvent   ro code  0x0800c4e8     0x10  GUI_WaitEvent.o [3]
  .text.GUI_ALLOC_AssignMemory
                          ro code  0x0800c4f8     0x10  GUI_Alloc.o [3]
  .text.GUI_SetDefaultFont
                          ro code  0x0800c508      0xc  GUI_Core.o [3]
  .text.GUI_ALLOC_GetFixedBlock
                          ro code  0x0800c514     0xa4  GUI_Alloc.o [3]
  .text.GUI_DEVICE_CreateAndLink
                          ro code  0x0800c5b8     0x28  GUI_Device.o [3]
  .text.LCD_SetSizeEx     ro code  0x0800c5e0     0x30  LCD_Set.o [3]
  .text.LCD_SetVSizeEx    ro code  0x0800c610     0x30  LCD_Set.o [3]
  .text.GUIDRV_FlexColor_Config
                          ro code  0x0800c640     0x3c  GUIDRV_FlexColor.o [3]
  .text.GUIDRV_FlexColor_SetFunc
                          ro code  0x0800c67c     0x32  GUIDRV_FlexColor.o [3]
  .text.GUI_TOUCH_Calibrate
                          ro code  0x0800c6b0     0xbc  GUI_TOUCH_DriverAnalog.o [3]
  .text.LCD_GetNumLayers  ro code  0x0800c76c     0x1e  LCD_GetNumDisplays.o [3]
  .text.LCD_GetBitsPerPixelEx
                          ro code  0x0800c78a      0x6  LCD_GetEx.o [3]
  .text.LCD_GetNumColorsEx
                          ro code  0x0800c790      0x6  LCD_GetEx.o [3]
  .text.LCD_Index2Color   ro code  0x0800c798     0x1c  LCD.o [3]
  .text.LCD_SetLUTEntryEx
                          ro code  0x0800c7b4     0x30  LCD_Set.o [3]
  .text.GUI_SelectLCD     ro code  0x0800c7e4     0x1a  GUI_Common.o [3]
  .text._GetDevProp       ro code  0x0800c7fe     0x1e  LCD_GetEx.o [3]
  .text.GUI_ALLOC_AllocZero
                          ro code  0x0800c81c     0x3c  GUI_Alloc.o [3]
  .text.WM__InsertWindowIntoList
                          ro code  0x0800c858     0xac  WM.o [3]
  .text.WM_BringToBottom  ro code  0x0800c904     0x90  WM_Lib.o [3]
  .text.WM__SendMsgNoData
                          ro code  0x0800c994     0x16  WM.o [3]
  .text.WM_InvalidateRect
                          ro code  0x0800c9aa     0x82  WM.o [3]
  .text.WM__SelectTopLevelLayer
                          ro code  0x0800ca2c     0x14  WM.o [3]
  .text.GUI_GetCursorLayer
                          ro code  0x0800ca40     0x14  GUI_SelectLayer.o [3]
  .text.GUI_SetBkColor    ro code  0x0800ca54     0x16  GUI_Common.o [3]
  .text.GUI_Clear         ro code  0x0800ca6c     0x20  GUI_Core.o [3]
  .text.GUI_DrawBitmap    ro code  0x0800ca8c     0x58  GUI_DrawBitmap.o [3]
  .text.GUI_SetLayerSizeEx
                          ro code  0x0800cae4     0x20  GUI_SelectLayer.o [3]
  .text.GUI_SPRITE_Delete
                          ro code  0x0800cb04     0x4c  GUI_SPRITE.o [3]
  .text.GUI_SPRITE__CreateEx
                          ro code  0x0800cb50     0xcc  GUI_SPRITE.o [3]
  .text.GUI_SetLayerVisEx
                          ro code  0x0800cc1c     0x1c  GUI_SelectLayer.o [3]
  .text.GUI_SPRITE_Show   ro code  0x0800cc38     0x4c  GUI_SPRITE.o [3]
  .text.GUI__strcmp_hp    ro code  0x0800cc84     0x28  GUI__Private.o [3]
  .text.GUI__strlen       ro code  0x0800ccac     0x18  GUI__Private.o [3]
  .text.GUI_ALLOC_GetSize
                          ro code  0x0800ccc4     0x18  GUI_Alloc.o [3]
  .text.GUI_ALLOC_AllocNoInit
                          ro code  0x0800ccdc     0x1a  GUI_Alloc.o [3]
  .text                   ro code  0x0800ccf8     0x4c  strcpy.o [6]
  .text.GUI_ALLOC_FreePtr
                          ro code  0x0800cd44     0x1a  GUI_Alloc.o [3]
  .text.GUI_GetYSizeOfFont
                          ro code  0x0800cd5e      0x8  GUI_Common.o [3]
  .text.FRAMEWIN__CalcPositions
                          ro code  0x0800cd66     0xec  FRAMEWIN.o [3]
  .text.WM_MoveChildTo    ro code  0x0800ce52     0x60  WM_Lib.o [3]
  .text.WM_SetSize        ro code  0x0800ceb2     0x56  WM_Lib.o [3]
  .text.WM_GetFirstChild  ro code  0x0800cf08     0x1a  WM_Lib.o [3]
  .text.WM_ResizeWindow   ro code  0x0800cf22    0x108  WM_Lib.o [3]
  .text.WM_MoveWindow     ro code  0x0800d02a     0x1e  WM_Move.o [3]
  .text.WM_GetNextSibling
                          ro code  0x0800d048     0x1a  WM_Lib.o [3]
  .text.WM__SendMessage   ro code  0x0800d064     0x3c  WM__Private.o [3]
  .text.WM__GetClientRectWin
                          ro code  0x0800d0a0     0x18  WM.o [3]
  .text.WM_GetParent      ro code  0x0800d0b8     0x1a  WM_Lib.o [3]
  .text.WM_InvalidateWindowAndDescs
                          ro code  0x0800d0d2     0x34  WM_Lib.o [3]
  .text.WM__IsWindow      ro code  0x0800d108     0x20  WM.o [3]
  .text.WM__GetTopLevelLayer
                          ro code  0x0800d128     0x28  WM.o [3]
  .text.WM__DeleteAssocTimer
                          ro code  0x0800d150     0x52  WM_Timer.o [3]
  .text.GUI_MEMDEV_Delete
                          ro code  0x0800d1a4     0x4c  GUIDEV.o [3]
  .text.WM_NotifyParent   ro code  0x0800d1f0     0x14  WM_Lib.o [3]
  .text.WM__DetachWindow  ro code  0x0800d204     0x2a  WM.o [3]
  .text.GUI_ALLOC_Free    ro code  0x0800d230     0x30  GUI_Alloc.o [3]
  .text.WM__SendMessageNoPara
                          ro code  0x0800d260     0x28  WM__Private.o [3]
  .text.WM__GetFocusedChild
                          ro code  0x0800d288     0x24  WM__Private.o [3]
  .text._GetNextChild     ro code  0x0800d2ac     0x26  WM_SetFocusOnNextChild.o [3]
  .text.WM_IsFocusable    ro code  0x0800d2d2     0x3c  WM_Lib.o [3]
  .text.WM_SetFocus       ro code  0x0800d310     0xa8  WM_Lib.o [3]
  .text.WM_Exec           ro code  0x0800d3b8     0x88  WM.o [3]
  .text.GUI_DEVICE_Link   ro code  0x0800d440     0x84  GUI_Device.o [3]
  .text                   ro code  0x0800d4c4     0x14  exit.o [7]
  .text._InitOnce         ro code  0x0800d4d8     0x68  GUI_Alloc.o [3]
  .text._RemoveHoles      ro code  0x0800d540     0x9c  GUI_Alloc.o [3]
  .text._RemoveFreeBlock  ro code  0x0800d5dc     0x40  GUI_Alloc.o [3]
  .text._AddFreeMemory    ro code  0x0800d61c     0xa4  GUI_Alloc.o [3]
  .text.GUI_DEVICE_Create
                          ro code  0x0800d6c0     0x4c  GUI_Device.o [3]
  .text.GUIDRV_FlexColor__InitOnce
                          ro code  0x0800d70c     0x3c  GUIDRV_FlexColor.o [3]
  .text.LCD_GetXSizeEx    ro code  0x0800d748      0x6  LCD_GetEx.o [3]
  .text.LCD_GetYSizeEx    ro code  0x0800d74e      0x6  LCD_GetEx.o [3]
  .text.GUI_TOUCH_CalcCoefficients
                          ro code  0x0800d754    0x320  GUI_TOUCH_Calibrate.o [3]
  .text.LCD_SelectLCD     ro code  0x0800da74     0x40  LCD_SelectLCD.o [3]
  .text.LCD_UpdateColorIndices
                          ro code  0x0800dab4     0x24  LCD_UpdateColorIndices.o [3]
  .text.WM__GetPrevSibling
                          ro code  0x0800dad8     0x26  WM__Private.o [3]
  .text.WM__InvalidateRectEx
                          ro code  0x0800dafe      0x6  WM.o [3]
  .text.WM__InvalidateDrawAndDescs
                          ro code  0x0800db04     0x50  WM.o [3]
  .text.WM__Client2Screen
                          ro code  0x0800db54     0x10  WM.o [3]
  .text.GUI__IntersectRect
                          ro code  0x0800db64     0x3a  GUI__Private.o [3]
  .text.WM__ClipAtParentBorders
                          ro code  0x0800dba0     0x58  WM.o [3]
  .text.WM__Invalidate1Abs
                          ro code  0x0800dbf8      0x6  WM.o [3]
  .text.GUI_GotoXY        ro code  0x0800dc00     0x20  GUI_Common.o [3]
  .text.GUI_ClearRect     ro code  0x0800dc20     0x6c  GUI_Core.o [3]
  .text.WM__InitIVRSearch
                          ro code  0x0800dc8c    0x100  WM.o [3]
  .text.GL_DrawBitmap     ro code  0x0800dd8c     0xa8  GUI_DrawBitmap.o [3]
  .text.WM__GetNextIVR    ro code  0x0800de34    0x184  WM.o [3]
  .text._Undraw           ro code  0x0800dfb8     0xf0  GUI_SPRITE.o [3]
  .text._Unlink           ro code  0x0800e0a8     0x1c  GUI_SPRITE.o [3]
  .text.GUI_ALLOC_FreeFixedBlock
                          ro code  0x0800e0c4     0x14  GUI_Alloc.o [3]
  .text.GUI_DEVICE_Delete
                          ro code  0x0800e0d8      0x4  GUI_Device.o [3]
  .text._DoColorConversion.isra.3
                          ro code  0x0800e0dc     0x8c  GUI_SPRITE.o [3]
  .text._Link             ro code  0x0800e168     0x1c  GUI_SPRITE.o [3]
  .text._SpriteDraw       ro code  0x0800e184    0x1e8  GUI_SPRITE.o [3]
  .text.LCD_SetVisEx      ro code  0x0800e36c     0x2c  LCD_Set.o [3]
  .text.GUI__strcmp       ro code  0x0800e398     0x2c  GUI__Private.o [3]
  .text._Alloc            ro code  0x0800e3c4     0xf0  GUI_Alloc.o [3]
  .text.WM__GetWindowSizeX
                          ro code  0x0800e4b4      0xe  WM_GetWindowSize.o [3]
  .text.WM__GetWindowSizeY
                          ro code  0x0800e4c2      0xe  WM_GetWindowSize.o [3]
  .text.WM_GetWindowSizeY
                          ro code  0x0800e4d0     0x38  WM_GetWindowSize.o [3]
  .text.FRAMEWIN__GetTitleLimits
                          ro code  0x0800e508     0x8a  FRAMEWIN.o [3]
  .text.WM__MoveWindow    ro code  0x0800e592     0xa8  WM_Move.o [3]
  .text.GUI_MergeRect     ro code  0x0800e63a     0x56  GUI_Common.o [3]
  .text.WM__UpdateChildPositions
                          ro code  0x0800e690     0xec  WM__Private.o [3]
  .text.GUI_TIMER__GetFirstTimer
                          ro code  0x0800e77c     0x30  GUI_Timer.o [3]
  .text.GUI_TIMER_GetFlag
                          ro code  0x0800e7ac     0x36  GUI_Timer.o [3]
  .text.GUI_TIMER__GetNextTimerLin
                          ro code  0x0800e7e2     0x38  GUI_Timer.o [3]
  .text.WM_DeleteTimer    ro code  0x0800e81a     0x30  WM_Timer.o [3]
  .text.GUI_USAGE_DecUseCnt
                          ro code  0x0800e84a     0x32  GUIDEV_Usage.o [3]
  .text.WM__RemoveWindowFromList
                          ro code  0x0800e87c     0x3c  WM.o [3]
  .text._PushFreeBlock    ro code  0x0800e8b8     0x24  GUI_Alloc.o [3]
  .text.WM__IsChild       ro code  0x0800e8dc     0x28  WM__Private.o [3]
  .text.WM_IsWindow       ro code  0x0800e904     0x18  WM_Lib.o [3]
  .text._Exec1Input       ro code  0x0800e91c     0x8c  WM.o [3]
  .text._Exec1Draw        ro code  0x0800e9a8     0x94  WM.o [3]
  .text.GUI__ManageCache  ro code  0x0800ea3c     0x10  GUI__ManageCache.o [3]
  .text._EnlargeBlocks    ro code  0x0800ea4c     0x9c  GUI_Alloc.o [3]
  .text                   ro code  0x0800eae8      0xc  memmove.o [6]
  .text.GUI_DEVICE_Unlink
                          ro code  0x0800eaf4     0x30  GUI_Device.o [3]
  .text.LCD_Color2Index   ro code  0x0800eb24     0x1c  LCD.o [3]
  .text.LCD_SetColorIndex
                          ro code  0x0800eb40     0x18  LCD.o [3]
  .text.LCD_SetBkColorIndex
                          ro code  0x0800eb58     0x18  LCD.o [3]
  .text.WM__GetFirstSibling
                          ro code  0x0800eb70     0x12  WM__Private.o [3]
  .text.WM__InvalidateRect
                          ro code  0x0800eb82     0x76  WM.o [3]
  .text.GUI_MoveRect      ro code  0x0800ebf8     0x20  GUI_Common.o [3]
  .text._Invalidate1Abs   ro code  0x0800ec18     0xa0  WM.o [3]
  .text.WM__ActivateClipRect
                          ro code  0x0800ecb8     0x48  WM.o [3]
  .text.GUI_SetDrawMode   ro code  0x0800ed00     0x18  GUI_Common.o [3]
  .text.LCD_DrawBitmap    ro code  0x0800ed18    0x224  LCD.o [3]
  .text._Findy1           ro code  0x0800ef3c     0xa6  WM.o [3]
  .text._Findx0           ro code  0x0800efe2     0x86  WM.o [3]
  .text._Findx1           ro code  0x0800f068     0x72  WM.o [3]
  .text._GetDeviceRect    ro code  0x0800f0dc     0x3c  GUI_SPRITE.o [3]
  .text._CreateBuffer     ro code  0x0800f118     0xaa  GUI_SPRITE.o [3]
  .text.GUI_GetBitmapPixelIndex
                          ro code  0x0800f1c2     0x18  GUI_Common.o [3]
  .text._SetBkIndexBuffered
                          ro code  0x0800f1da     0x44  GUI_SPRITE.o [3]
  .text._ReleaseBuffer.isra.6
                          ro code  0x0800f21e     0x1e  GUI_SPRITE.o [3]
  .text._GetBkIndex.isra.0
                          ro code  0x0800f23c     0x70  GUI_SPRITE.o [3]
  .text._GetBkIndexAlpha.isra.2
                          ro code  0x0800f2ac     0x7a  GUI_SPRITE.o [3]
  .text.WM_GetActiveWindow
                          ro code  0x0800f328      0xc  WM.o [3]
  .text._MoveDescendents  ro code  0x0800f334     0x72  WM_Move.o [3]
  .text.WM__InvalidateParent
                          ro code  0x0800f3a6     0x2a  WM.o [3]
  .text.GUI_TIMER_Delete  ro code  0x0800f3d0     0x70  GUI_Timer.o [3]
  .text.GUI_PollKeyMsg    ro code  0x0800f440     0x3c  GUI_OnKey.o [3]
  .text.GUI_SaveContext_W
                          ro code  0x0800f47c     0x14  GUI_Common.o [3]
  .text.WM__Paint         ro code  0x0800f490     0xb4  WM.o [3]
  .text.GUI_SetColor      ro code  0x0800f544     0x16  GUI_Common.o [3]
  .text.GUI_RestoreContext
                          ro code  0x0800f55c     0x14  GUI_Common.o [3]
  .text.GUI__ManageCacheEx
                          ro code  0x0800f570     0xdc  GUI__ManageCache.o [3]
  .text                   ro code  0x0800f64c     0x96  ABImemmove.o [6]
  .text.GUI__IntersectRects
                          ro code  0x0800f6e2     0x56  GUI__Private.o [3]
  .text.WM_InvalidateWindowAndDescsEx
                          ro code  0x0800f738     0x64  WM.o [3]
  .text.WM__RectIsNZ      ro code  0x0800f79c     0x22  WM.o [3]
  .text._SetClipRectUserIntersect
                          ro code  0x0800f7c0     0x50  WM.o [3]
  .text.GUI_RectsIntersect
                          ro code  0x0800f810     0x3a  GUI_Common.o [3]
  .text.GUI_ALLOC_GetMaxSize
                          ro code  0x0800f84c     0x3c  GUI_Alloc.o [3]
  .text.GUI_GetBitmapPixelIndexEx
                          ro code  0x0800f888     0x88  GUI_Common.o [3]
  .text._FlushBuffer.isra.5
                          ro code  0x0800f910     0x7a  GUI_SPRITE.o [3]
  .text._Unlink           ro code  0x0800f98c     0x4c  GUI_Timer.o [3]
  .text.WM_OnKey          ro code  0x0800f9d8     0x44  WM_Lib.o [3]
  .text.GUI_MEMDEV_Draw   ro code  0x0800fa1c    0x170  GUIDEV_Banding.o [3]
  .text.WM__PaintWinAndOverlays
                          ro code  0x0800fb8c     0x78  WM.o [3]
  .text.LCD_SetClipRectEx
                          ro code  0x0800fc04     0x30  LCD_SetClipRectEx.o [3]
  .text.GUI__CompactPixelIndices
                          ro code  0x0800fc34    0x15e  GUI__CompactPixelIndices.o [3]
  .text.LCD_GetVXSizeEx   ro code  0x0800fd92      0x6  LCD_GetEx.o [3]
  .text.LCD_GetVYSizeEx   ro code  0x0800fd98      0x6  LCD_GetEx.o [3]
  .text.GUI_GetOrg        ro code  0x0800fda0     0x2c  GUI_Common.o [3]
  .text.GUI_MEMDEV_CreateEx
                          ro code  0x0800fdcc     0x84  GUIDEV.o [3]
  .text.GUI_MEMDEV_GetYSize
                          ro code  0x0800fe50     0x38  GUIDEV_GetYSize.o [3]
  .text.GUI_MEMDEV_Select
                          ro code  0x0800fe88     0x54  GUIDEV.o [3]
  .text.GUI_MEMDEV_ReduceYSize
                          ro code  0x0800fedc     0x38  GUIDEV_ReduceYSize.o [3]
  .text.GUI_MEMDEV_SetOrg
                          ro code  0x0800ff14     0x64  GUIDEV_SetOrg.o [3]
  .text.GUI_MEMDEV_Clear  ro code  0x0800ff78     0x4c  GUIDEV_Clear.o [3]
  .text.GUI_MEMDEV_CopyToLCD
                          ro code  0x0800ffc4      0xc  GUIDEV.o [3]
  .text._Paint1           ro code  0x0800ffd0     0x28  WM.o [3]
  .text._PaintTransChildren
                          ro code  0x0800fff8     0xae  WM.o [3]
  .text._Paint1Trans      ro code  0x080100a8     0x94  WM.o [3]
  .text.GUI_MEMDEV__CreateFixed
                          ro code  0x0801013c    0x124  GUIDEV.o [3]
  .text.WM_Deactivate     ro code  0x08010260     0x20  WM.o [3]
  .text.GUI_MEMDEV_CopyToLCDAt
                          ro code  0x08010280     0xac  GUIDEV.o [3]
  .text.LCD__GetBPPDevice
                          ro code  0x0801032c     0x2c  LCD_GetEx.o [3]
  .text.GUI_ALLOC_RequestSize
                          ro code  0x08010358     0x38  GUI_Alloc.o [3]
  .text.GUI_USAGE_BM_Create
                          ro code  0x08010390     0x60  GUIDEV_UsageBM.o [3]
  .text.GUI_MEMDEV__WriteToActiveOpaque
                          ro code  0x080103f0    0x74c  GUIDEV_WriteToActiveOpaque.o [3]
  .text.LCD__GetBPP       ro code  0x08010b3c     0x7e  LCD_GetEx.o [3]
  .text.GUI_MEMDEV_GetBitsPerPixel
                          ro code  0x08010bba     0x34  GUIDEV.o [3]
  .text.GUI_GetBitsPerPixelEx
                          ro code  0x08010bf0     0x14  LCD_GetEx.o [3]
  .text.GUI_GetpfIndex2ColorEx
                          ro code  0x08010c04     0x10  LCD_GetEx.o [3]
  .text.GUI_GetpfColor2IndexEx
                          ro code  0x08010c14     0x10  LCD_GetEx.o [3]
  .text.GUI_MEMDEV_GetDataPtr
                          ro code  0x08010c24     0x2a  GUIDEV_GetDataPtr.o [3]
  .text._Convert16        ro code  0x08010c4e     0x3e  GUIDEV_WriteToActiveOpaque.o [3]
  .text._Convert8         ro code  0x08010c8c     0x42  GUIDEV_WriteToActiveOpaque.o [3]
  .text.LCD__DrawBitmap_1bpp
                          ro code  0x08010cd0    0x1d8  LCD.o [3]
  .rodata                 const    0x08010ea8    0xd5c  ILI93xx.o [1]
  .rodata                 const    0x08011c04    0x86b  F13_1.o [3]
  .rodata                 const    0x08012470    0x822  F13_ASCII.o [3]
  .text._DrawBitmap       ro code  0x08012c94    0x740  GUIDEV_16.o [3]
  .text.GUI_USAGE_AddRect
                          ro code  0x080133d4     0x26  GUIDEV_Usage.o [3]
  .text._XY2PTR           ro code  0x080133fc     0x40  GUIDEV_16.o [3]
  .rodata                 const    0x0801343c    0x73c  F6x8.o [3]
  .text._DrawBitmap       ro code  0x08013b78    0x718  GUIDEV_32.o [3]
  .text._XY2PTR           ro code  0x08014290     0x40  GUIDEV_32.o [3]
  .rodata                 const    0x080142d0    0x5f0  ILI93xx.o [1]
  .text._DrawBitmap       ro code  0x080148c0    0x534  GUIDRV_FlexColor_16bpp_C0B16.o [3]
  .text.GRAPH_Callback    ro code  0x08014df4    0x4f2  GRAPH.o [3]
  .text.WIDGET_HandleActive
                          ro code  0x080152e6    0x14a  WIDGET.o [3]
  .text._ManageScrollbars
                          ro code  0x08015430     0xba  GRAPH.o [3]
  .text.WM_GetClientRect  ro code  0x080154ec     0x2c  WM_Lib.o [3]
  .text.WIDGET__EFFECT_DrawDownRect
                          ro code  0x08015518     0x38  WIDGET.o [3]
  .text.WM_SetUserClipRect
                          ro code  0x08015550     0x20  WM_Lib.o [3]
  .text.WM_GetInsideRectExScrollbar
                          ro code  0x08015570     0xac  WM_Lib.o [3]
  .text.GUI_GetLineStyle  ro code  0x0801561c     0x18  GUI_Common.o [3]
  .text.GUI_SetLineStyle  ro code  0x08015634     0x1c  GUI_Common.o [3]
  .text.GUI_DrawLine      ro code  0x08015650     0x4c  GUI_DrawLine.o [3]
  .text.GUI_DrawVLine     ro code  0x0801569c     0x50  GUI_DrawLib.o [3]
  .text.GUI_DrawHLine     ro code  0x080156ec     0x5c  GUI_DrawLib.o [3]
  .text.GUI__ReduceRect   ro code  0x08015748     0x1c  GUI__Private.o [3]
  .text.WM_GetOrgX        ro code  0x08015764     0x10  WM_Lib.o [3]
  .text.WM_GetOrgY        ro code  0x08015774     0x10  WM_Lib.o [3]
  .text.GUI_ARRAY_GetNumItems
                          ro code  0x08015784     0x1e  GUI_ARRAY.o [3]
  .text.GUI_ARRAY_GethItem
                          ro code  0x080157a2     0x26  GUI_ARRAY.o [3]
  .text.GUI_ARRAY_Delete  ro code  0x080157c8     0x52  GUI_ARRAY.o [3]
  .text.WM_GetScrollbarV  ro code  0x0801581a     0x1c  WM_Lib.o [3]
  .text.WM_GetScrollbarH  ro code  0x08015836     0x1c  WM_Lib.o [3]
  .text._OnScrollValueChanged
                          ro code  0x08015852     0x38  GRAPH.o [3]
  .text.WM_BringToTop     ro code  0x0801588c     0x80  WM_BringToTop.o [3]
  .text.WIDGET_SetState   ro code  0x0801590c     0x2e  WIDGET.o [3]
  .text.WIDGET__GetInsideRect
                          ro code  0x0801593a     0x1a  WIDGET.o [3]
  .text.WM_SetScrollbarV  ro code  0x08015954     0x1c  WM_SetScrollbar.o [3]
  .text.WM_SetScrollbarH  ro code  0x08015970     0x1c  WM_SetScrollbar.o [3]
  .text.WM_CheckScrollBounds
                          ro code  0x0801598c     0x1e  WM_Lib.o [3]
  .text.WIDGET__SetScrollState
                          ro code  0x080159aa     0x26  WIDGET.o [3]
  .text.WM_GetClientRectEx
                          ro code  0x080159d0     0x1a  WM_Lib.o [3]
  .text.WIDGET__RotateRect90
                          ro code  0x080159ea     0x28  WIDGET.o [3]
  .text._EffectRequiresRedraw
                          ro code  0x08015a12     0x60  WIDGET.o [3]
  .text.WM_GetDialogItem  ro code  0x08015a72     0x4c  WM_Lib.o [3]
  .text.WM_GetWindowRectEx
                          ro code  0x08015abe     0x26  WM_Lib.o [3]
  .text.WM_GetInsideRectEx
                          ro code  0x08015ae4     0x16  WM_Lib.o [3]
  .text.WM_GetFlags       ro code  0x08015afa     0x1a  WM_Lib.o [3]
  .text.GL_DrawLine       ro code  0x08015b14     0x16  GUI_DrawLine.o [3]
  .text.LCD_DrawVLine     ro code  0x08015b2c     0x54  LCD.o [3]
  .text.WM_GetWindowOrgX  ro code  0x08015b80     0x1c  WM_Lib.o [3]
  .text.WM_GetWindowOrgY  ro code  0x08015b9c     0x1c  WM_Lib.o [3]
  .text.GUI_ARRAY__GethItem
                          ro code  0x08015bb8     0x30  GUI_ARRAY.o [3]
  .text._GetDialogItem    ro code  0x08015be8     0x46  WM_Lib.o [3]
  .text.SCROLLBAR_GetValue
                          ro code  0x08015c2e     0x28  SCROLLBAR.o [3]
  .text.WM_ForEachDesc    ro code  0x08015c56     0x1e  WM_Lib.o [3]
  .text.WM__SetScrollbarV
                          ro code  0x08015c74      0x8  WM_SetScrollbar.o [3]
  .text.WM__SetScrollbarH
                          ro code  0x08015c7c      0x8  WM_SetScrollbar.o [3]
  .text.WM_SetScrollState
                          ro code  0x08015c84     0x18  WM_Lib.o [3]
  .text.WM__Screen2Client
                          ro code  0x08015c9c     0x14  WM__Private.o [3]
  .text.GL_DrawLineEx     ro code  0x08015cb0    0x1b0  GUI_DrawLine.o [3]
  .text.WM__ForEachDesc   ro code  0x08015e60     0x2a  WM__Private.o [3]
  .text._SetScrollbar     ro code  0x08015e8a     0x52  WM_SetScrollbar.o [3]
  .text.GL_DrawLine1Ex    ro code  0x08015edc    0x1ac  GUI_DrawLine.o [3]
  .text.GUI_cos           ro code  0x08016088      0x8  GUI_DrawLine.o [3]
  .text.GUI_sin           ro code  0x08016090     0x5c  GUI_DrawLine.o [3]
  .text.GL_FillPolygon    ro code  0x080160ec    0x1d4  GUI_FillPolygon.o [3]
  .text.GL_DrawPoint      ro code  0x080162c0     0x20  GUI_DrawLib.o [3]
  .text.SCROLLBAR_CreateAttached
                          ro code  0x080162e0     0x3a  SCROLLBAR.o [3]
  .text.WM_HideWindow     ro code  0x0801631a     0x38  WM_Hide.o [3]
  .text.WM__DeleteSecure  ro code  0x08016354     0x1c  WM.o [3]
  .text._SetLineColor     ro code  0x08016370     0x90  GUI_DrawLine.o [3]
  .text._Add              ro code  0x08016400     0x40  GUI_FillPolygon.o [3]
  .text.GL_FillCircle     ro code  0x08016440     0xc0  GUI_Circ.o [3]
  .text.SCROLLBAR_CreateEx
                          ro code  0x08016500     0x20  SCROLLBAR.o [3]
  .text.SCROLLBAR_CreateUser
                          ro code  0x08016520    0x100  SCROLLBAR.o [3]
  .text.WIDGET__Init      ro code  0x08016620     0x10  WIDGET.o [3]
  .text.SCROLLBAR__InvalidatePartner
                          ro code  0x08016630     0x1c  SCROLLBAR.o [3]
  .text.WM_GetScrollPartner
                          ro code  0x0801664c     0x2a  WM_Lib.o [3]
  .text.GUI_SPRITE_SetPosition
                          ro code  0x08016678    0x4c4  GUI_SPRITE.o [3]
  .rodata                 const    0x08016b3c    0x474  ILI93xx.o [1]
  .text._DrawBitmap       ro code  0x08016fb0    0x3e4  GUI_SPRITE.o [3]
  .text._GetClipRect      ro code  0x08017394     0xec  GUI_SPRITE.o [3]
  .text._GetClipParam     ro code  0x08017480    0x130  GUI_SPRITE.o [3]
  .text.WM_HandlePID      ro code  0x080175b0    0x3a0  WM_Touch.o [3]
  .text.GUI_PID_IsEmpty   ro code  0x08017950     0x10  GUI_PID.o [3]
  .text.GUI_PID_GetState  ro code  0x08017960     0x50  GUI_PID.o [3]
  .text.GUI_GetLayerPosEx
                          ro code  0x080179b0     0x28  GUI_SelectLayer.o [3]
  .text.GUI_CURSOR_SetPositionEx
                          ro code  0x080179d8     0x6c  GUI_Cursor.o [3]
  .text.WM_Screen2hWin    ro code  0x08017a44     0x2c  WM_Screen2Win.o [3]
  .text.WM__IsInModalArea
                          ro code  0x08017a70     0x60  WM_Touch.o [3]
  .text.WM__IsEnabled     ro code  0x08017ad0     0x12  WM__Private.o [3]
  .text.WM__SendTouchMessage
                          ro code  0x08017ae2     0x3a  WM_Touch.o [3]
  .text.WM__SendMessageIfEnabled
                          ro code  0x08017b1c     0x1a  WM__Private.o [3]
  .text.WM_ReleaseCapture
                          ro code  0x08017b36     0x12  WM_SetCapture.o [3]
  .text.WM_PID__SetPrevState
                          ro code  0x08017b48     0x14  WM_PID__GetPrevState.o [3]
  .text.WM__RemoveCriticalHandle
                          ro code  0x08017b5c     0x2c  WM__Private.o [3]
  .text.LCD_GetPosEx      ro code  0x08017b88     0x32  LCD_Set.o [3]
  .text.GUI_SetLayerPosEx
                          ro code  0x08017bba     0x20  GUI_SelectLayer.o [3]
  .text.WM_GetDesktopWindowEx
                          ro code  0x08017bdc     0x14  WM_Lib.o [3]
  .text._Screen2hWin      ro code  0x08017bf0     0x60  WM_Screen2Win.o [3]
  .text.WM__IsAncestor    ro code  0x08017c50     0x22  WM__Private.o [3]
  .text.WM__SendPIDMessage
                          ro code  0x08017c72     0x42  WM_Touch.o [3]
  .text.WM__ReleaseCapture
                          ro code  0x08017cb4     0x30  WM_SetCapture.o [3]
  .text.LCD_SetPosEx      ro code  0x08017ce4     0x30  LCD_Set.o [3]
  .text.WM__IsInWindow    ro code  0x08017d14     0x36  WM_Screen2Win.o [3]
  .text.SCROLLBAR_Callback
                          ro code  0x08017d4a    0x396  SCROLLBAR.o [3]
  .text._DeleteTimer      ro code  0x080180e0     0x24  SCROLLBAR.o [3]
  .text.GUI__DivideRound32
                          ro code  0x08018104     0x18  GUI__Private.o [3]
  .text.WM_CreateTimer    ro code  0x0801811c     0x68  WM_Timer.o [3]
  .text.WM_SetCapture     ro code  0x08018184     0x40  WM_SetCapture.o [3]
  .text.SCROLLBAR_SetValue
                          ro code  0x080181c4     0x58  SCROLLBAR.o [3]
  .text.WIDGET_AndState   ro code  0x0801821c     0x34  WIDGET.o [3]
  .text.SCROLLBAR_AddValue
                          ro code  0x08018250     0x30  SCROLLBAR.o [3]
  .text.SCROLLBAR_Inc     ro code  0x08018280      0x6  SCROLLBAR.o [3]
  .text.SCROLLBAR_Dec     ro code  0x08018286      0x8  SCROLLBAR.o [3]
  .text.WM_RestartTimer   ro code  0x0801828e     0x38  WM_Timer.o [3]
  .text.GUI_GetTime       ro code  0x080182c6      0x4  GUI_Time.o [3]
  .text.GUI_TIMER_Create  ro code  0x080182cc     0x9c  GUI_Timer.o [3]
  .text.GUI_TIMER_SetPeriod
                          ro code  0x08018368     0x28  GUI_Timer.o [3]
  .text.GUI_TIMER_Restart
                          ro code  0x08018390     0x3c  GUI_Timer.o [3]
  .text._Link             ro code  0x080183cc     0x90  GUI_Timer.o [3]
  .text.FRAMEWIN_DrawSkinFlex
                          ro code  0x0801845c    0x378  FRAMEWIN_SkinFlex.o [3]
  .text.FRAMEWIN_GetActive
                          ro code  0x080187d4     0x2e  FRAMEWIN.o [3]
  .text.GUI__DrawTwinArc2
                          ro code  0x08018804    0x174  GUI__DrawTwinArc.o [3]
  .text.GUI_DrawPixel     ro code  0x08018978     0x50  GUI_DrawLib.o [3]
  .text.GUI_FillRect      ro code  0x080189c8     0x54  GUI_DrawLib.o [3]
  .text.GUI_DrawGradientV
                          ro code  0x08018a1c     0x74  GUI_DrawGradient.o [3]
  .text.GUI_SetTextMode   ro code  0x08018a90     0x20  GUI_Common.o [3]
  .text.GUI_SetFont       ro code  0x08018ab0     0x20  GUI_Common.o [3]
  .text.GUI_DispStringInRect
                          ro code  0x08018ad0      0x8  GUI_DispString.o [3]
  .text.GUI_FillRectEx    ro code  0x08018ad8     0x14  GUI_DrawLib.o [3]
  .text.WM_SetHasTrans    ro code  0x08018aec     0x48  WM_SetTrans.o [3]
  .text._GetTwinArcPara   ro code  0x08018b34     0x54  GUI__DrawTwinArc.o [3]
  .text.LCD_DrawHLine     ro code  0x08018b88     0x50  LCD.o [3]
  .text._DrawGradient     ro code  0x08018bd8    0x194  GUI_DrawGradient.o [3]
  .text.GUI_DispStringInRectMax
                          ro code  0x08018d6c     0x4e  GUI_DispString.o [3]
  .text.WM_ValidateWindow
                          ro code  0x08018dbc     0x38  WM_Lib.o [3]
  .text.GUI__sqrt32       ro code  0x08018df4     0x24  GUI__Private.o [3]
  .text.GUI_GetColor      ro code  0x08018e18     0x18  GUI_Common.o [3]
  .text.GUI__DispStringInRect
                          ro code  0x08018e30    0x14c  GUI_DispString.o [3]
  .text.LCD_GetColorIndex
                          ro code  0x08018f7c     0x10  LCD_GetColorIndex.o [3]
  .text.GUI_GetFontDistY  ro code  0x08018f8c     0x1c  GUI_Char.o [3]
  .text.GUI_GetClientRect
                          ro code  0x08018fa8      0x8  GUI_Common.o [3]
  .text.GUI__GetLineNumChars
                          ro code  0x08018fb0     0x38  GUI_CharLine.o [3]
  .text.GUI_UC__NumChars2NumBytes
                          ro code  0x08018fe8     0x24  GUI_UC.o [3]
  .text.GUI__HandleEOLine
                          ro code  0x0801900c     0x26  GUI__Private.o [3]
  .text.GUI__GetLineDistX
                          ro code  0x08019034     0x60  GUI_CharLine.o [3]
  .text.GUI__DispLine     ro code  0x08019094     0xa8  GUI_CharLine.o [3]
  .text.GUI_UC__GetCharCodeInc
                          ro code  0x0801913c     0x28  GUI_UC.o [3]
  .text.GUI_GetCharDistX  ro code  0x08019164     0x24  GUI_Char.o [3]
  .text.GUI__GetOverlap   ro code  0x08019188     0x1c  GUI_CharLine.o [3]
  .text._DispLine         ro code  0x080191a4     0x9c  GUI_CharLine.o [3]
  .text.GUI_GetCharDistXEx
                          ro code  0x08019240     0x28  GUI_Char.o [3]
  .rodata                 const    0x08019268    0x370  GUI__DivTbl.o [3]
  .text.FRAMEWIN_Callback
                          ro code  0x080195d8    0x27c  FRAMEWIN.o [3]
  .text.WM_SetCaptureMove
                          ro code  0x08019854     0x9c  WM_SetCaptureMove.o [3]
  .text.WM_HasFocus       ro code  0x080198f0     0x1c  WM_Lib.o [3]
  .text.FRAMEWIN_SetActive
                          ro code  0x0801990c     0x1e  FRAMEWIN.o [3]
  .text.WM__IsAncestorOrSelf
                          ro code  0x0801992a      0xc  WM__Private.o [3]
  .text._SetActive        ro code  0x08019936     0x38  FRAMEWIN.o [3]
  .text.WM_HasCaptured    ro code  0x08019970     0x1c  WM_Lib.o [3]
  .text.BUTTON_DrawSkinFlex
                          ro code  0x0801998c    0x238  BUTTON_SkinFlex.o [3]
  .text.GUI__DrawTwinArc4
                          ro code  0x08019bc4    0x1e0  GUI__DrawTwinArc.o [3]
  .text.GUI_DrawRect      ro code  0x08019da4     0x90  GUI_2DLib.o [3]
  .text.GUI_DRAW__Draw    ro code  0x08019e34     0x32  GUI_DRAW.o [3]
  .text._FillRect         ro code  0x08019e68    0x1ec  GUI_SPRITE.o [3]
  .text._DrawHLine        ro code  0x0801a054    0x1d8  GUI_SPRITE.o [3]
  .text.GUI__DoAlphaBlending
                          ro code  0x0801a22c    0x1d4  GUI__Alpha.o [3]
  .text.GUI__GetAlphaBuffer
                          ro code  0x0801a400     0xb8  GUI__Alpha.o [3]
  .text.GUI_ReadRectEx    ro code  0x0801a4b8     0x60  LCD_ReadRect.o [3]
  .text.GUI__ExpandPixelIndicesEx
                          ro code  0x0801a518    0x17c  GUI__ExpandPixelIndices.o [3]
  .text.LCD_GetVXSizeMax  ro code  0x0801a694      0x6  LCD_GetEx.o [3]
  .text.LCD_ReadRectEx    ro code  0x0801a69c    0x1a4  LCD_ReadRect.o [3]
  .text._DrawVLine        ro code  0x0801a840    0x1c0  GUI_SPRITE.o [3]
  .text.SCROLLBAR_DrawSkinFlex
                          ro code  0x0801aa00    0x1a4  SCROLLBAR_SkinFlex.o [3]
  .text._GetArrowPara     ro code  0x0801aba4     0x30  SCROLLBAR_SkinFlex.o [3]
  .text.WIDGET__DrawTriangle
                          ro code  0x0801abd4     0x3c  WIDGET.o [3]
  .text.GUI__ConvertColor2Index
                          ro code  0x0801ac10    0x196  GUI__CompactPixelIndices.o [3]
  .text.GUI_MEMDEV__WriteToActiveAlpha
                          ro code  0x0801ada8    0x184  GUIDEV_WriteToActiveAlpha.o [3]
  .text.GUI__AllocAlphaBuffer
                          ro code  0x0801af2c     0x1a  GUI__Alpha.o [3]
  .text.GUI__CompactPixelIndicesEx
                          ro code  0x0801af46      0xe  GUI__CompactPixelIndices.o [3]
  .text._CreateStaticDevice
                          ro code  0x0801af54    0x164  GUIDEV_StaticDevices.o [3]
  .text.GUI__AlphaPreserveTrans
                          ro code  0x0801b0b8     0x24  GUI_SetAlpha.o [3]
  .text.WM__Paint1        ro code  0x0801b0dc     0x94  WM.o [3]
  .text.LCD_GetXSize      ro code  0x0801b170     0x10  LCD_GetEx.o [3]
  .text.LCD_GetYSize      ro code  0x0801b180     0x10  LCD_GetEx.o [3]
  .text.LCD_AA_SetAndMask
                          ro code  0x0801b190     0x10  LCD_AA.o [3]
  .text.WM_SetDefault     ro code  0x0801b1a0     0x14  WM.o [3]
  .text.GL_SetDefault     ro code  0x0801b1b4     0x48  GUI_Common.o [3]
  .text.GUI_SetPenSize    ro code  0x0801b1fc     0x1c  GUI_Common.o [3]
  .text.GUI_SetTextAlign  ro code  0x0801b218     0x20  GUI_Common.o [3]
  .text._CalcPositions    ro code  0x0801b238    0x158  SCROLLBAR_Skin.o [3]
  .text.SCROLLBAR__Rect2VRect
                          ro code  0x0801b390     0x34  SCROLLBAR.o [3]
  .text.GUIMONO_DispChar  ro code  0x0801b3c4    0x13c  GUI_CharM.o [3]
  .text.FRAMEWIN_CreateUser
                          ro code  0x0801b500    0x10c  FRAMEWIN.o [3]
  .text.WM_DisableMemdev  ro code  0x0801b60c     0x26  WM_MemDev.o [3]
  .rodata                 const    0x0801b632    0x100  LCD_Mirror.o [3]
  .text._Paint            ro code  0x0801b732     0xfe  FRAMEWIN_Skin.o [3]
  .text.WM_GetWindowSizeX
                          ro code  0x0801b830     0x38  WM_GetWindowSize.o [3]
  .text._DrawFrame        ro code  0x0801b868     0xf4  SCROLLBAR_SkinFlex.o [3]
  .text._FillRect         ro code  0x0801b95c     0xf0  GUIDRV_FlexColor_16bpp_C0B16.o [3]
  .text.GUI__memset16     ro code  0x0801ba4c     0x64  GUI__Private.o [3]
  .text.GUIPROP_DispChar  ro code  0x0801bab0     0xec  GUI_CharP.o [3]
  .text.GUIPROP__FindChar
                          ro code  0x0801bb9c     0x14  GUI_CharP.o [3]
  .text.GUI_GetBkColor    ro code  0x0801bbb0     0x18  GUI_Common.o [3]
  .text.LCD_GetBkColorIndex
                          ro code  0x0801bbc8     0x10  LCD_GetColorIndex.o [3]
  .text.FRAMEWIN__cbClient
                          ro code  0x0801bbd8     0xe2  FRAMEWIN.o [3]
  .text.WM_SetFocusOnPrevChild
                          ro code  0x0801bcba     0x42  WM_SetFocusOnPrevChild.o [3]
  .text._GetPrevChild     ro code  0x0801bcfc     0x1e  WM_SetFocusOnPrevChild.o [3]
  .text.WM__GetLastSibling
                          ro code  0x0801bd1a     0x18  WM__Private.o [3]
  .text._XorPixel         ro code  0x0801bd34     0xe0  GUI_SPRITE.o [3]
  .text._PixelExists      ro code  0x0801be14     0x44  GUI_SPRITE.o [3]
  .text.BUTTON_Callback   ro code  0x0801be58     0xd8  BUTTON.o [3]
  .text.GUI_ALLOC_FreePtrArray
                          ro code  0x0801bf30     0x1a  GUI_Alloc.o [3]
  .text._OnButtonPressed  ro code  0x0801bf4a     0x30  BUTTON.o [3]
  .text._OnButtonReleased
                          ro code  0x0801bf7a     0x40  BUTTON.o [3]
  .text.GUI_StoreKey      ro code  0x0801bfbc     0x10  GUI_OnKey.o [3]
  .text._SetPixelIndex    ro code  0x0801bfcc     0xcc  GUI_SPRITE.o [3]
  .text._DrawVLine        ro code  0x0801c098     0xbc  GUIDEV_16.o [3]
  .text._Paint            ro code  0x0801c154     0xb6  SCROLLBAR_Skin.o [3]
  .text.WIDGET__GetClientRect
                          ro code  0x0801c20a     0x34  WIDGET.o [3]
  .text._DrawVLine        ro code  0x0801c240     0xb4  GUIDEV_32.o [3]
  .text._FillRect         ro code  0x0801c2f4     0xb4  GUIDEV_16.o [3]
  .text._FillRect         ro code  0x0801c3a8     0xb4  GUIDEV_32.o [3]
  .text.GUIDRV_FlexColor__GetPixelIndexNoCache
                          ro code  0x0801c45c     0xb2  GUIDRV_FlexColor.o [3]
  .text._SetPhysRAMAddr   ro code  0x0801c50e     0xa6  GUIDRV_FlexColor_Func66709.o [3]
  .text._SetRect          ro code  0x0801c5b4     0xa6  GUIDRV_FlexColor_Func66709.o [3]
  .text.GUI_USAGE_BM_GetNextDirty
                          ro code  0x0801c65a     0x9c  GUIDEV_UsageBM.o [3]
  .text._OnExit           ro code  0x0801c6f8     0x9c  WM.o [3]
  .text._SetDevFunc       ro code  0x0801c794     0x9c  GUIDRV_FlexColor.o [3]
  .text.GRAPH_CreateUser  ro code  0x0801c830     0x90  GRAPH.o [3]
  .text.GUI_ARRAY_Create  ro code  0x0801c8c0      0x6  GUI_ARRAY.o [3]
  .text.BUTTON_CreateUser
                          ro code  0x0801c8c8     0x88  BUTTON.o [3]
  .text.GUIDRV_FlexColor__SetPixelIndexNoCache
                          ro code  0x0801c950     0x88  GUIDRV_FlexColor.o [3]
  .text.GUI__MixColorsBulk
                          ro code  0x0801c9d8     0x88  GUI__Alpha.o [3]
  .text._Paint            ro code  0x0801ca60     0x84  BUTTON_Skin.o [3]
  .text._GetDevFunc       ro code  0x0801cae4     0x7c  GUIDRV_FlexColor.o [3]
  .rodata                 const    0x0801cb60     0x78  touch.o [1]
  .text.GUI_TIMER_Exec    ro code  0x0801cbd8     0x78  GUI_Timer.o [3]
  .text.GUI_USAGE_BM_AddHLine
                          ro code  0x0801cc50     0x78  GUIDEV_UsageBM.o [3]
  .rodata                 const    0x0801ccc8     0x74  GUIDRV_FlexColor.o [3]
  .rodata                 const    0x0801cd3c     0x74  GUIDEV_16.o [3]
  .rodata                 const    0x0801cdb0     0x74  GUIDEV_32.o [3]
  .text.GUI_DrawGradientH
                          ro code  0x0801ce24     0x74  GUI_DrawGradient.o [3]
  .text.GUIDRV_FlexColor_SetFunc66709
                          ro code  0x0801ce98     0x6c  GUIDRV_FlexColor_Func66709.o [3]
  .text.GUI_MEMDEV_WriteAt
                          ro code  0x0801cf04     0x6c  GUIDEV_Write.o [3]
  .text.GUI_MEMDEV__WriteToActiveAt
                          ro code  0x0801cf70     0x38  GUIDEV.o [3]
  .text.LCD_GetpPalConvTableUncached
                          ro code  0x0801cfa8     0x6c  LCD_Color.o [3]
  .text._cbPaintMemDev    ro code  0x0801d014     0x6c  WM.o [3]
  .text.GUIDRV_FlexColor_SetMode16bppC0B16
                          ro code  0x0801d080     0x68  GUIDRV_FlexColor_16bpp_C0B16.o [3]
  .text.GUI_MULTIBUF_BeginEx
                          ro code  0x0801d0e8     0x68  GUI_MULTIBUF.o [3]
  .text._cbBackWin        ro code  0x0801d150     0x68  WM.o [3]
  .text._GetPixelIndex    ro code  0x0801d1b8     0x64  GUI_SPRITE.o [3]
  .text._Index2ColorBulk  ro code  0x0801d21c     0x64  GUICC_M565.o [3]
  .text.LCD_DrawPixel     ro code  0x0801d280     0x60  LCD.o [3]
  .text._ReadRect_16bpp_B8
                          ro code  0x0801d2e0     0x60  GUIDRV_FlexColor_Func66709.o [3]
  .text                   ro code  0x0801d340     0x5c  stm32f4xx_it.o [1]
  .text                   ro code  0x0801d39c     0x18  stm32f4xx_hal.o [1]
  .text.BUTTON_SetText    ro code  0x0801d3b4     0x5c  BUTTON.o [3]
  .text.GUI_MULTIBUF_EndEx
                          ro code  0x0801d410     0x5c  GUI_MULTIBUF.o [3]
  .text.GUI_DCACHE_Clear  ro code  0x0801d46c     0x24  GUI_Core.o [3]
  .text._Color2IndexBulk  ro code  0x0801d490     0x5c  GUICC_M565.o [3]
  .text._DrawBackgroundH  ro code  0x0801d4ec     0x5c  SCROLLBAR_SkinFlex.o [3]
  .text._DrawBackgroundV  ro code  0x0801d548     0x5c  SCROLLBAR_SkinFlex.o [3]
  .text._DrawGraspH       ro code  0x0801d5a4     0x5c  SCROLLBAR_SkinFlex.o [3]
  .text._DrawGraspV       ro code  0x0801d600     0x5c  SCROLLBAR_SkinFlex.o [3]
  .text._XorPixel         ro code  0x0801d65c     0x5c  GUIDEV_32.o [3]
  .text._XorPixel         ro code  0x0801d6b8     0x58  GUIDEV_16.o [3]
  .rodata                 const    0x0801d710     0x54  FramewinDLG.o [1]
  .text._Color2Index_0    ro code  0x0801d764     0x52  GUICC_0.o [3]
  .text.LCD_GetNumColors  ro code  0x0801d7b8     0x10  LCD_GetEx.o [3]
  .text.LCD_GetPalette    ro code  0x0801d7c8     0x10  LCD_GetEx.o [3]
  .text.GUI_CalcColorDist
                          ro code  0x0801d7d8     0x4a  GUI_Common.o [3]
  .text.LCD_GetPaletteEx  ro code  0x0801d822     0x16  LCD_GetEx.o [3]
  .text._GetIndexMask_0   ro code  0x0801d838     0x52  GUICC_0.o [3]
  .text._SetPixelIndex    ro code  0x0801d88c     0x4c  GUIDEV_16.o [3]
  .text._SetPixelIndex    ro code  0x0801d8d8     0x4c  GUIDEV_32.o [3]
  .text._GetDevFunc_Init  ro code  0x0801d924     0x4a  GUIDRV_FlexColor.o [3]
  .rodata                 const    0x0801d970     0x48  main.o [1]
  .text.GUIDRV_FlexColor__SetLog2Phys
                          ro code  0x0801d9b8     0x48  GUIDRV_FlexColor.o [3]
  .text.LCD_AA_MixColors16
                          ro code  0x0801da00     0x48  LCD_AA.o [3]
  .text._OnExit           ro code  0x0801da48     0x48  GUI_Core.o [3]
  .text.BUTTON_CreateIndirect
                          ro code  0x0801da90     0x46  BUTTON.o [3]
  .rodata                 const    0x0801dad6     0x44  GUI_DrawLine.o [3]
  .text.FRAMEWIN_CreateIndirect
                          ro code  0x0801db1a     0x44  FRAMEWIN.o [3]
  .text.FRAMEWIN__GetBorderSize
                          ro code  0x0801db5e     0x44  FRAMEWIN.o [3]
  .text._GetBorderSize    ro code  0x0801dba2     0x40  FRAMEWIN_Skin.o [3]
  .text._GetDevFunc_SetRectOutside
                          ro code  0x0801dbe4     0x40  GUIDRV_FlexColor.o [3]
  .text._OnTouchDefault   ro code  0x0801dc24     0x40  BUTTON.o [3]
  .text._SetOrientation   ro code  0x0801dc64     0x40  GUIDRV_FlexColor_Func66709.o [3]
  .text                   ro code  0x0801dca4     0x40  zero_init3.o [6]
  .text.GRAPH_CreateIndirect
                          ro code  0x0801dce4     0x3c  GRAPH.o [3]
  .text.GUIPROP_GetCharDistX
                          ro code  0x0801dd20     0x3c  GUI_CharP.o [3]
  .text._ReadPixel_16bpp_B16_I
                          ro code  0x0801dd5c     0x3c  GUIDRV_FlexColor_Func66709.o [3]
  .text._Create           ro code  0x0801dd98     0x38  SCROLLBAR_Skin.o [3]
  .text._DrawDownRect     ro code  0x0801ddd0     0x38  WIDGET_Effect_Simple.o [3]
  .text._ReadPixel_16bpp_B8
                          ro code  0x0801de08     0x38  GUIDRV_FlexColor_Func66709.o [3]
  .text._Create           ro code  0x0801de40     0x36  BUTTON_Skin.o [3]
  .text._GetRect          ro code  0x0801de76     0x36  GUIDEV_16.o [3]
  .text._GetRect          ro code  0x0801deac     0x36  GUIDEV_32.o [3]
  .rodata                 const    0x0801dee4     0x34  GUI_SPRITE.o [3]
  .text._SetInterface     ro code  0x0801df18     0x34  GUIDRV_FlexColor_Func66709.o [3]
  .rodata                 const    0x0801df4c     0x30  main.o [1]
  .text._Create           ro code  0x0801df7c     0x2c  FRAMEWIN_Skin.o [3]
  .text._MULTIBUF_Begin   ro code  0x0801dfa8     0x2c  WM_MULTIBUF.o [3]
  .text._MULTIBUF_End     ro code  0x0801dfd4     0x2c  WM_MULTIBUF.o [3]
  .text._cbTimer          ro code  0x0801e000     0x2c  WM_Timer.o [3]
  .text.GUI_USAGE_BM_AddPixel
                          ro code  0x0801e02c     0x28  GUIDEV_UsageBM.o [3]
  .text.LCD_Index2Color_M565
                          ro code  0x0801e054     0x28  GUICC_M565.o [3]
  .text._Color2Index_M565
                          ro code  0x0801e07c     0x28  GUICC_M565.o [3]
  .text._GetDevFunc       ro code  0x0801e0a4     0x28  GUI_SPRITE.o [3]
  .text._OnExit           ro code  0x0801e0cc     0x28  GUI__Alpha.o [3]
  .text._SetDrawMode      ro code  0x0801e0f4     0x28  LCD.o [3]
  .text                   ro code  0x0801e11c     0x28  data_init.o [6]
  .text._XorPixel         ro code  0x0801e144     0x24  GUIDRV_FlexColor.o [3]
  .text._GetPixelIndex    ro code  0x0801e168      0x8  GUIDRV_FlexColor.o [3]
  .text._SetPixelIndex    ro code  0x0801e170     0x10  GUIDRV_FlexColor.o [3]
  .text                   ro code  0x0801e180     0x22  fpinit_M.o [5]
  .iar.init_table         const    0x0801e1a4     0x20  - Linker created -
  .rodata                 const    0x0801e1c4     0x20  mylib.o [1]
  .rodata                 const    0x0801e1e4     0x20  mylib.o [1]
  .text                   ro code  0x0801e204     0x20  system_stm32f4xx.o [1]
  .text._SetBkColor       ro code  0x0801e224     0x20  LCD.o [3]
  .text._SetColor         ro code  0x0801e244     0x20  LCD.o [3]
  .text._Index2Color_0    ro code  0x0801e264     0x1e  GUICC_0.o [3]
  .rodata                 const    0x0801e284     0x1c  FramewinDLG.o [1]
  .rodata                 const    0x0801e2a0     0x1c  mylib.o [1]
  .rodata                 const    0x0801e2bc     0x1c  WIDGET_Effect_Simple.o [3]
  .text.GUI_MEMDEV_Paint1Static
                          ro code  0x0801e2d8     0x1c  GUIDEV_StaticDevices.o [3]
  .text.GUI_MEMDEV_Write  ro code  0x0801e2f4      0xc  GUIDEV_Write.o [3]
  .text._OnExit           ro code  0x0801e300     0x1c  LCD_Color.o [3]
  .text                   ro code  0x0801e31c     0x1a  cmain.o [6]
  .text                   ro code  0x0801e336      0x4  low_level_init.o [4]
  .text                   ro code  0x0801e33a      0x4  exit.o [4]
  .text                   ro code  0x0801e340      0xa  cexit.o [6]
  .rodata                 const    0x0801e34c     0x18  main.o [1]
  .rodata                 const    0x0801e364     0x18  main.o [1]
  .rodata                 const    0x0801e37c     0x18  touch.o [1]
  .rodata                 const    0x0801e394     0x18  GUICC_M565.o [3]
  .rodata                 const    0x0801e3ac     0x18  GUICC_0.o [3]
  .rodata                 const    0x0801e3c4     0x18  GUICC_8888.o [3]
  .rodata                 const    0x0801e3dc     0x18  GUIDEV_UsageBM.o [3]
  .text.GUIMONO_GetCharDistX
                          ro code  0x0801e3f4     0x18  GUI_CharM.o [3]
  .text._GetDevProp       ro code  0x0801e40c     0x18  GUIDEV_16.o [3]
  .text._OnExit           ro code  0x0801e424     0x18  GUI_Cursor.o [3]
  .text._OnExit           ro code  0x0801e43c     0x18  GUI_PID.o [3]
  .rodata                 const    0x0801e454     0x17  GUI_Core.o [3]
  .text                   ro code  0x0801e46c     0x16  xprout.o [4]
  .text                   ro code  0x0801e484      0xc  putchar.o [4]
  .text._GetDevFunc_Off   ro code  0x0801e490     0x16  GUIDRV_FlexColor.o [3]
  .text._GetDevFunc_On    ro code  0x0801e4a6     0x16  GUIDRV_FlexColor.o [3]
  .text._SetOrg           ro code  0x0801e4bc     0x16  GUIDRV_FlexColor.o [3]
  .rodata                 const    0x0801e4d4     0x14  dht11.o [1]
  .rodata                 const    0x0801e4e8     0x14  main.o [1]
  .rodata                 const    0x0801e4fc     0x14  main.o [1]
  .rodata                 const    0x0801e510     0x14  mylib.o [1]
  .rodata                 const    0x0801e524     0x14  touch.o [1]
  .text._DrawDown         ro code  0x0801e538     0x14  WIDGET_Effect_Simple.o [3]
  .text._GetDevFunc_SetSize
                          ro code  0x0801e54c     0x14  GUIDRV_FlexColor.o [3]
  .text._GetDevFunc_SetVSize
                          ro code  0x0801e560     0x14  GUIDRV_FlexColor.o [3]
  .text._OnExit           ro code  0x0801e574     0x14  GUI_Task.o [3]
  .rodata                 const    0x0801e588     0x10  system_stm32f4xx.o [1]
  .rodata                 const    0x0801e598     0x10  BUTTON_SkinFlex.o [3]
  .rodata                 const    0x0801e5a8     0x10  GUI_UC_EncodeNone.o [3]
  .text                   ro code  0x0801e5b8     0x10  startup_stm32f407xx.o [1]
  .text.GUIPROP_IsInFont  ro code  0x0801e5c8     0x10  GUI_CharP.o [3]
  .text.GUI_USAGE_BM_Clear
                          ro code  0x0801e5d8     0x10  GUIDEV_UsageBM.o [3]
  .text._Color2IndexBulk  ro code  0x0801e5e8     0x10  GUICC_8888.o [3]
  .text._DrawHLine        ro code  0x0801e5f8     0x10  GUIDRV_FlexColor.o [3]
  .text._FillRect         ro code  0x0801e608     0x10  GUIDRV_FlexColor.o [3]
  .text._GetDevData       ro code  0x0801e618     0x10  GUIDEV_16.o [3]
  .text._GetDevData       ro code  0x0801e628     0x10  GUIDEV_32.o [3]
  .text._GetDevFunc       ro code  0x0801e638     0x10  GUIDEV_16.o [3]
  .text._GetDevFunc       ro code  0x0801e648     0x10  GUIDEV_32.o [3]
  .text._Index2ColorBulk  ro code  0x0801e658     0x10  GUICC_8888.o [3]
  .text._OnExit           ro code  0x0801e668     0x10  GUI_Timer.o [3]
  .text._DrawHLine        ro code  0x0801e678      0xe  GUIDEV_16.o [3]
  .text._DrawHLine        ro code  0x0801e686      0xe  GUIDEV_32.o [3]
  .text._GetPixelIndex    ro code  0x0801e694      0xe  GUIDEV_16.o [3]
  .text._GetPixelIndex    ro code  0x0801e6a2      0xe  GUIDEV_32.o [3]
  .rodata                 const    0x0801e6b0      0xc  FramewinDLG.o [1]
  .rodata                 const    0x0801e6bc      0xc  main.o [1]
  .rodata                 const    0x0801e6c8      0xc  main.o [1]
  .rodata                 const    0x0801e6d4      0xc  main.o [1]
  .rodata                 const    0x0801e6e0      0xc  LCD.o [3]
  .text                   ro code  0x0801e6ec      0xc  cstartup_M.o [6]
  .text._GetDevData       ro code  0x0801e6f8      0xc  GUIDRV_FlexColor.o [3]
  .text._GetDevProp       ro code  0x0801e704      0xc  GUI_SPRITE.o [3]
  .text._GetRect          ro code  0x0801e710      0xc  GUI_SPRITE.o [3]
  .text._SetOrg           ro code  0x0801e71c      0xc  GUIDEV_16.o [3]
  .text._SetOrg           ro code  0x0801e728      0xc  GUI_SPRITE.o [3]
  .rodata                 const    0x0801e734      0x8  dht11.o [1]
  .rodata                 const    0x0801e73c      0x8  FramewinDLG.o [1]
  .rodata                 const    0x0801e744      0x8  FramewinDLG.o [1]
  .rodata                 const    0x0801e74c      0x8  FramewinDLG.o [1]
  .rodata                 const    0x0801e754      0x8  main.o [1]
  .rodata                 const    0x0801e75c      0x8  system_stm32f4xx.o [1]
  .rodata                 const    0x0801e764      0x8  tasks.o [1]
  .rodata                 const    0x0801e76c      0x8  timers.o [1]
  .rodata                 const    0x0801e774      0x8  timers.o [1]
  .rodata                 const    0x0801e77c      0x8  touch.o [1]
  .rodata                 const    0x0801e784      0x8  w25qxx.o [1]
  .rodata                 const    0x0801e78c      0x8  WM_MULTIBUF.o [3]
  .rodata                 const    0x0801e794      0x8  GUIDRV_FlexColor_Func66709.o [3]
  .text._Log2PhysX_X1Y0S0
                          ro code  0x0801e79c      0x8  GUIDRV_FlexColor.o [3]
  .text._Log2PhysX_X1Y0S1
                          ro code  0x0801e7a4      0x8  GUIDRV_FlexColor.o [3]
  .text._Log2PhysX_X1Y1S0
                          ro code  0x0801e7ac      0x8  GUIDRV_FlexColor.o [3]
  .text._Log2PhysX_X1Y1S1
                          ro code  0x0801e7b4      0x8  GUIDRV_FlexColor.o [3]
  .text._Log2PhysY_X0Y1S0
                          ro code  0x0801e7bc      0x8  GUIDRV_FlexColor.o [3]
  .text._Log2PhysY_X0Y1S1
                          ro code  0x0801e7c4      0x8  GUIDRV_FlexColor.o [3]
  .text._Log2PhysY_X1Y1S0
                          ro code  0x0801e7cc      0x8  GUIDRV_FlexColor.o [3]
  .text._Log2PhysY_X1Y1S1
                          ro code  0x0801e7d4      0x8  GUIDRV_FlexColor.o [3]
  .text._SetOrg           ro code  0x0801e7dc      0x8  GUIDEV_32.o [3]
  .text._SetReg_B16       ro code  0x0801e7e4      0x8  GUIDRV_FlexColor_Func66709.o [3]
  .text._WriteData        ro code  0x0801e7ec      0x8  GUIDRV_FlexColor_16bpp_C0B16.o [3]
  .text._WritePara_B16    ro code  0x0801e7f4      0x8  GUIDRV_FlexColor_Func66709.o [3]
  .text._WritePara_B8     ro code  0x0801e7fc      0x8  GUIDRV_FlexColor_Func66709.o [3]
  .rodata                 const    0x0801e804      0x6  xlocale_c.o [4]
  .rodata                 const    0x0801e80c      0x4  heap_4.o [1]
  .rodata                 const    0x0801e810      0x4  port.o [1]
  .text                   ro code  0x0801e814      0x4  startup_stm32f407xx.o [1]
  .text                   ro code  0x0801e818      0x4  startup_stm32f407xx.o [1]
  .text                   ro code  0x0801e81c      0x4  startup_stm32f407xx.o [1]
  .text                   ro code  0x0801e820      0x4  startup_stm32f407xx.o [1]
  .text                   ro code  0x0801e824      0x4  startup_stm32f407xx.o [1]
  .text                   ro code  0x0801e828      0x4  startup_stm32f407xx.o [1]
  .text                   ro code  0x0801e82c      0x4  startup_stm32f407xx.o [1]
  .text                   ro code  0x0801e830      0x4  startup_stm32f407xx.o [1]
  .text                   ro code  0x0801e834      0x4  startup_stm32f407xx.o [1]
  .text                   ro code  0x0801e838      0x4  startup_stm32f407xx.o [1]
  .text                   ro code  0x0801e83c      0x4  startup_stm32f407xx.o [1]
  .text                   ro code  0x0801e840      0x4  startup_stm32f407xx.o [1]
  .text                   ro code  0x0801e844      0x4  startup_stm32f407xx.o [1]
  .text                   ro code  0x0801e848      0x4  startup_stm32f407xx.o [1]
  .text                   ro code  0x0801e84c      0x4  startup_stm32f407xx.o [1]
  .text                   ro code  0x0801e850      0x4  startup_stm32f407xx.o [1]
  .text                   ro code  0x0801e854      0x4  startup_stm32f407xx.o [1]
  .text                   ro code  0x0801e858      0x4  startup_stm32f407xx.o [1]
  .text                   ro code  0x0801e85c      0x4  startup_stm32f407xx.o [1]
  .text                   ro code  0x0801e860      0x4  startup_stm32f407xx.o [1]
  .text                   ro code  0x0801e864      0x4  startup_stm32f407xx.o [1]
  .text                   ro code  0x0801e868      0x4  startup_stm32f407xx.o [1]
  .text                   ro code  0x0801e86c      0x4  startup_stm32f407xx.o [1]
  .text                   ro code  0x0801e870      0x4  startup_stm32f407xx.o [1]
  .text                   ro code  0x0801e874      0x4  startup_stm32f407xx.o [1]
  .text                   ro code  0x0801e878      0x4  startup_stm32f407xx.o [1]
  .text                   ro code  0x0801e87c      0x4  startup_stm32f407xx.o [1]
  .text                   ro code  0x0801e880      0x4  startup_stm32f407xx.o [1]
  .text                   ro code  0x0801e884      0x4  startup_stm32f407xx.o [1]
  .text                   ro code  0x0801e888      0x4  startup_stm32f407xx.o [1]
  .text                   ro code  0x0801e88c      0x4  startup_stm32f407xx.o [1]
  .text                   ro code  0x0801e890      0x4  startup_stm32f407xx.o [1]
  .text                   ro code  0x0801e894      0x4  startup_stm32f407xx.o [1]
  .text                   ro code  0x0801e898      0x4  startup_stm32f407xx.o [1]
  .text                   ro code  0x0801e89c      0x4  startup_stm32f407xx.o [1]
  .text                   ro code  0x0801e8a0      0x4  startup_stm32f407xx.o [1]
  .text                   ro code  0x0801e8a4      0x4  startup_stm32f407xx.o [1]
  .text                   ro code  0x0801e8a8      0x4  startup_stm32f407xx.o [1]
  .text                   ro code  0x0801e8ac      0x4  startup_stm32f407xx.o [1]
  .text                   ro code  0x0801e8b0      0x4  startup_stm32f407xx.o [1]
  .text                   ro code  0x0801e8b4      0x4  startup_stm32f407xx.o [1]
  .text                   ro code  0x0801e8b8      0x4  startup_stm32f407xx.o [1]
  .text                   ro code  0x0801e8bc      0x4  startup_stm32f407xx.o [1]
  .text                   ro code  0x0801e8c0      0x4  startup_stm32f407xx.o [1]
  .text                   ro code  0x0801e8c4      0x4  startup_stm32f407xx.o [1]
  .text                   ro code  0x0801e8c8      0x4  startup_stm32f407xx.o [1]
  .text                   ro code  0x0801e8cc      0x4  startup_stm32f407xx.o [1]
  .text                   ro code  0x0801e8d0      0x4  startup_stm32f407xx.o [1]
  .text                   ro code  0x0801e8d4      0x4  startup_stm32f407xx.o [1]
  .text                   ro code  0x0801e8d8      0x4  startup_stm32f407xx.o [1]
  .text                   ro code  0x0801e8dc      0x4  startup_stm32f407xx.o [1]
  .text                   ro code  0x0801e8e0      0x4  startup_stm32f407xx.o [1]
  .text                   ro code  0x0801e8e4      0x4  startup_stm32f407xx.o [1]
  .text                   ro code  0x0801e8e8      0x4  startup_stm32f407xx.o [1]
  .text                   ro code  0x0801e8ec      0x4  startup_stm32f407xx.o [1]
  .text                   ro code  0x0801e8f0      0x4  startup_stm32f407xx.o [1]
  .text                   ro code  0x0801e8f4      0x4  startup_stm32f407xx.o [1]
  .text                   ro code  0x0801e8f8      0x4  startup_stm32f407xx.o [1]
  .text                   ro code  0x0801e8fc      0x4  startup_stm32f407xx.o [1]
  .text                   ro code  0x0801e900      0x4  startup_stm32f407xx.o [1]
  .text                   ro code  0x0801e904      0x4  startup_stm32f407xx.o [1]
  .text                   ro code  0x0801e908      0x4  startup_stm32f407xx.o [1]
  .text                   ro code  0x0801e90c      0x4  startup_stm32f407xx.o [1]
  .text                   ro code  0x0801e910      0x4  startup_stm32f407xx.o [1]
  .text                   ro code  0x0801e914      0x4  startup_stm32f407xx.o [1]
  .text                   ro code  0x0801e918      0x4  startup_stm32f407xx.o [1]
  .text                   ro code  0x0801e91c      0x4  startup_stm32f407xx.o [1]
  .text                   ro code  0x0801e920      0x4  startup_stm32f407xx.o [1]
  .text                   ro code  0x0801e924      0x4  startup_stm32f407xx.o [1]
  .text                   ro code  0x0801e928      0x4  startup_stm32f407xx.o [1]
  .text                   ro code  0x0801e92c      0x4  startup_stm32f407xx.o [1]
  .text                   ro code  0x0801e930      0x4  startup_stm32f407xx.o [1]
  .text                   ro code  0x0801e934      0x4  startup_stm32f407xx.o [1]
  .text                   ro code  0x0801e938      0x4  startup_stm32f407xx.o [1]
  .text                   ro code  0x0801e93c      0x4  startup_stm32f407xx.o [1]
  .text                   ro code  0x0801e940      0x4  startup_stm32f407xx.o [1]
  .text                   ro code  0x0801e944      0x4  startup_stm32f407xx.o [1]
  .text.LCD_GetpPalConvTableBM
                          ro code  0x0801e948      0x4  LCD_Color.o [3]
  .text._CalcSizeOfChar   ro code  0x0801e94c      0x4  GUI_UC_EncodeNone.o [3]
  .text._DrawUp           ro code  0x0801e950      0x4  WIDGET_Effect_Simple.o [3]
  .text._DrawUpRect       ro code  0x0801e954      0x4  WIDGET_Effect_Simple.o [3]
  .text._GUI_USAGE_BM_Delete
                          ro code  0x0801e958      0x4  GUIDEV_UsageBM.o [3]
  .text._GetCharCode      ro code  0x0801e95c      0x4  GUI_UC_EncodeNone.o [3]
  .text._GetCharSize      ro code  0x0801e960      0x4  GUI_UC_EncodeNone.o [3]
  .text._GetDevData       ro code  0x0801e964      0x4  GUI_SPRITE.o [3]
  .text._Log2PhysX_X0Y0S0
                          ro code  0x0801e968      0x4  GUIDRV_FlexColor.o [3]
  .text._Log2PhysX_X0Y0S1
                          ro code  0x0801e96c      0x4  GUIDRV_FlexColor.o [3]
  .text._Log2PhysX_X0Y1S0
                          ro code  0x0801e970      0x4  GUIDRV_FlexColor.o [3]
  .text._Log2PhysX_X0Y1S1
                          ro code  0x0801e974      0x4  GUIDRV_FlexColor.o [3]
  .text._Log2PhysY_X0Y0S0
                          ro code  0x0801e978      0x4  GUIDRV_FlexColor.o [3]
  .text._Log2PhysY_X0Y0S1
                          ro code  0x0801e97c      0x4  GUIDRV_FlexColor.o [3]
  .text._Log2PhysY_X1Y0S0
                          ro code  0x0801e980      0x4  GUIDRV_FlexColor.o [3]
  .text._Log2PhysY_X1Y0S1
                          ro code  0x0801e984      0x4  GUIDRV_FlexColor.o [3]
  .text._cbInvalidateOne  ro code  0x0801e988      0x4  WM_BringToTop.o [3]
  .rodata                 const    0x0801e98c      0x0  zero_init3.o [6]
  .rodata                 const    0x0801e98c      0x0  lz77_init_single.o [6]
  Initializer bytes       const    0x0801e98c    0x257  <for P2-1>
                                 - 0x0801ebe3  0x1ea5b

"P2", part 1 of 3:                               0x3e9
  P2-1                             0x20000000    0x3e9  <Init block>
    .data                 inited   0x20000000      0x4  port.o [1]
    .data                 inited   0x20000004      0x4  stm32f4xx_hal.o [1]
    .data                 inited   0x20000008      0x4  system_stm32f4xx.o [1]
    .data                 inited   0x2000000c     0x48  touch.o [1]
    .data                 inited   0x20000054     0x38  BUTTON.o [3]
    .data                 inited   0x2000008c     0x2c  FRAMEWIN.o [3]
    .data                 inited   0x200000b8     0x30  GRAPH.o [3]
    .data                 inited   0x200000e8      0x4  GUI_Time.o [3]
    .data                 inited   0x200000ec     0x10  GUI_Core.o [3]
    .data                 inited   0x200000fc      0x8  GUIDRV_FlexColor_Func66709.o [3]
    .data                 inited   0x20000104      0x8  GUI_TOUCH_DriverAnalog.o [3]
    .data                 inited   0x2000010c      0x4  WIDGET.o [3]
    .data                 inited   0x20000110      0x8  GUI_OnKey.o [3]
    .data                 inited   0x20000118      0x8  GUI_Task.o [3]
    .data                 inited   0x20000120      0x8  GUI__Private.o [3]
    .data                 inited   0x20000128     0x80  BUTTON_SkinFlex.o [3]
    .data                 inited   0x200001a8      0xc  BUTTON_Skin.o [3]
    .data                 inited   0x200001b4      0x4  LCD.o [3]
    .data                 inited   0x200001b8     0x58  FRAMEWIN_SkinFlex.o [3]
    .data                 inited   0x20000210     0x14  FRAMEWIN_Skin.o [3]
    .data                 inited   0x20000224     0x1a  SCROLLBAR.o [3]
    .data                 inited   0x20000240      0x4  LCD_Color.o [3]
    .data                 inited   0x20000244      0x4  WM_Touch.o [3]
    .data                 inited   0x20000248     0x3c  GUI_CursorResource.o [3]
    .data                 inited   0x20000284      0x8  GUI__Alpha.o [3]
    .data                 inited   0x2000028c      0x4  GUI_CharLine.o [3]
    .data                 inited   0x20000290     0x58  SCROLLBAR_SkinFlex.o [3]
    .data                 inited   0x200002e8      0xc  SCROLLBAR_Skin.o [3]
    .data                 inited   0x200002f4      0x8  GUI_PID.o [3]
    .data                 inited   0x200002fc     0x18  LCD_AA.o [3]
    .data                 inited   0x20000314     0x38  xlocale_c.o [4]
    .data                 inited   0x2000034c     0x48  xlocale_c.o [4]
    .data                 inited   0x20000394     0x48  xfiles.o [4]
    .data                 inited   0x200003dc      0x2  ILI93xx.o [1]
    .data                 inited   0x200003de      0x1  stm32f4xx_hal.o [1]
    .data                 inited   0x200003df      0x1  touch.o [1]
    .data                 inited   0x200003e0      0x1  touch.o [1]
    .data                 inited   0x200003e1      0x7  GUI_Common.o [3]
    .data                 inited   0x200003e8      0x1  GUIDEV_StaticDevices.o [3]
                                 - 0x200003e9    0x3e9

"P2", part 2 of 3:                             0x14590
  .bss                    zero     0x200003ec  0x12c00  heap_4.o [1]
  .bss                    zero     0x20012fec   0x1000  w25qxx.o [1]
  .bss                    zero     0x20013fec     0xc0  GUI_Alloc.o [3]
  .bss                    zero     0x200140ac     0xa8  GUI_Core.o [3]
  .bss                    zero     0x20014154     0x64  tasks.o [1]
  .bss                    zero     0x200141b8     0x60  GUI_OnKey.o [3]
  .bss                    zero     0x20014218     0x58  spi.o [1]
  .bss                    zero     0x20014270     0x58  GUI_PID.o [3]
  .bss                    zero     0x200142c8     0x54  i2c.o [1]
  .bss                    zero     0x2001431c     0x50  fsmc.o [1]
  .bss                    zero     0x2001436c     0x50  xfiles.o [4]
  .bss                    zero     0x200143bc     0x4c  GUI_Cursor.o [3]
  .bss                    zero     0x20014408     0x40  queue.o [1]
  .bss                    zero     0x20014448     0x40  usart.o [1]
  .bss                    zero     0x20014488     0x40  usart.o [1]
  .bss                    zero     0x200144c8     0x40  usart.o [1]
  .bss                    zero     0x20014508     0x40  usart.o [1]
  .bss                    zero     0x20014548     0x30  WM.o [3]
  .bss                    zero     0x20014578     0x2f  GUI_TOUCH_DriverAnalog.o [3]
  .bss                    zero     0x200145a7      0x1  port.o [1]
  .bss                    zero     0x200145a8     0x2c  GUI_MULTIBUF.o [3]
  .bss                    zero     0x200145d4     0x28  WM_Touch.o [3]
  .bss                    zero     0x200145fc     0x24  GUI_TOUCH_Calibrate.o [3]
  .bss                    zero     0x20014620     0x20  GUI__Alpha.o [3]
  .bss                    zero     0x20014640     0x1c  GUIDRV_FlexColor.o [3]
  .bss                    zero     0x2001465c     0x1c  GUI_FillPolygon.o [3]
  .bss                    zero     0x20014678     0x18  GUI__ManageCache.o [3]
  .bss                    zero     0x20014690     0x18  WM_PID__GetPrevState.o [3]
  .bss                    zero     0x200146a8     0x14  main.o [1]
  .bss                    zero     0x200146bc     0x14  main.o [1]
  .bss                    zero     0x200146d0     0x14  tasks.o [1]
  .bss                    zero     0x200146e4     0x14  tasks.o [1]
  .bss                    zero     0x200146f8     0x14  tasks.o [1]
  .bss                    zero     0x2001470c     0x14  tasks.o [1]
  .bss                    zero     0x20014720     0x14  tasks.o [1]
  .bss                    zero     0x20014734     0x14  timers.o [1]
  .bss                    zero     0x20014748     0x14  timers.o [1]
  .bss                    zero     0x2001475c     0x14  GUI_Task.o [3]
  .bss                    zero     0x20014770     0x14  GUI_Timer.o [3]
  .bss                    zero     0x20014784     0x10  ds3231.o [1]
  .bss                    zero     0x20014794     0x10  ILI93xx.o [1]
  .bss                    zero     0x200147a4     0x10  touch.o [1]
  .bss                    zero     0x200147b4     0x10  WM_Touch.o [3]
  .bss                    zero     0x200147c4     0x10  WM_Touch.o [3]
  .bss                    zero     0x200147d4     0x10  WM_Touch.o [3]
  .bss                    zero     0x200147e4     0x10  GUI_TOUCH.o [3]
  .bss                    zero     0x200147f4      0xc  GUI_Alloc.o [3]
  .bss                    zero     0x20014800      0xc  LCD_Color.o [3]
  .bss                    zero     0x2001480c      0xc  GUI_TOUCH_StoreState.o [3]
  .bss                    zero     0x20014818      0x8  crc.o [1]
  .bss                    zero     0x20014820      0x8  heap_4.o [1]
  .bss                    zero     0x20014828      0x8  GUI_Core.o [3]
  .bss                    zero     0x20014830      0x8  WM.o [3]
  .bss                    zero     0x20014838      0x8  WM.o [3]
  .bss                    zero     0x20014840      0x8  WM.o [3]
  .bss                    zero     0x20014848      0x8  WM.o [3]
  .bss                    zero     0x20014850      0x8  GUICC_M565.o [3]
  .bss                    zero     0x20014858      0x8  GUI_WaitEvent.o [3]
  .bss                    zero     0x20014860      0x8  LCD_GetEx.o [3]
  .bss                    zero     0x20014868      0x8  GUI_SelectLayer.o [3]
  .bss                    zero     0x20014870      0x4  fsmc.o [1]
  .bss                    zero     0x20014874      0x4  GUI_X_OS.o [1]
  .bss                    zero     0x20014878      0x4  GUI_X_OS.o [1]
  .bss                    zero     0x2001487c      0x4  GUIConf.o [1]
  .bss                    zero     0x20014880      0x4  heap_4.o [1]
  .bss                    zero     0x20014884      0x4  heap_4.o [1]
  .bss                    zero     0x20014888      0x4  heap_4.o [1]
  .bss                    zero     0x2001488c      0x4  heap_4.o [1]
  .bss                    zero     0x20014890      0x4  mylib.o [1]
  .bss                    zero     0x20014894      0x4  port.o [1]
  .bss                    zero     0x20014898      0x4  stm32f4xx_hal.o [1]
  .bss                    zero     0x2001489c      0x4  tasks.o [1]
  .bss                    zero     0x200148a0      0x4  tasks.o [1]
  .bss                    zero     0x200148a4      0x4  tasks.o [1]
  .bss                    zero     0x200148a8      0x4  tasks.o [1]
  .bss                    zero     0x200148ac      0x4  tasks.o [1]
  .bss                    zero     0x200148b0      0x4  tasks.o [1]
  .bss                    zero     0x200148b4      0x4  tasks.o [1]
  .bss                    zero     0x200148b8      0x4  tasks.o [1]
  .bss                    zero     0x200148bc      0x4  tasks.o [1]
  .bss                    zero     0x200148c0      0x4  tasks.o [1]
  .bss                    zero     0x200148c4      0x4  tasks.o [1]
  .bss                    zero     0x200148c8      0x4  tasks.o [1]
  .bss                    zero     0x200148cc      0x4  tasks.o [1]
  .bss                    zero     0x200148d0      0x4  tasks.o [1]
  .bss                    zero     0x200148d4      0x4  tasks.o [1]
  .bss                    zero     0x200148d8      0x4  timers.o [1]
  .bss                    zero     0x200148dc      0x4  timers.o [1]
  .bss                    zero     0x200148e0      0x4  timers.o [1]
  .bss                    zero     0x200148e4      0x4  timers.o [1]
  .bss                    zero     0x200148e8      0x4  timers.o [1]
  .bss                    zero     0x200148ec      0x4  BUTTON.o [3]
  .bss                    zero     0x200148f0      0x4  GUI_Core.o [3]
  .bss                    zero     0x200148f4      0x4  GUI_Core.o [3]
  .bss                    zero     0x200148f8      0x4  GUI_Core.o [3]
  .bss                    zero     0x200148fc      0x4  GUI_Core.o [3]
  .bss                    zero     0x20014900      0x4  GUI_Core.o [3]
  .bss                    zero     0x20014904      0x4  GUI_Core.o [3]
  .bss                    zero     0x20014908      0x4  GUI_Core.o [3]
  .bss                    zero     0x2001490c      0x4  GUI_Core.o [3]
  .bss                    zero     0x20014910      0x4  GUI_Core.o [3]
  .bss                    zero     0x20014914      0x4  GUI_Core.o [3]
  .bss                    zero     0x20014918      0x4  GUI_Core.o [3]
  .bss                    zero     0x2001491c      0x4  GUI_Core.o [3]
  .bss                    zero     0x20014920      0x4  WM.o [3]
  .bss                    zero     0x20014924      0x4  WM.o [3]
  .bss                    zero     0x20014928      0x4  WM.o [3]
  .bss                    zero     0x2001492c      0x4  WM.o [3]
  .bss                    zero     0x20014930      0x4  WM.o [3]
  .bss                    zero     0x20014934      0x4  WM.o [3]
  .bss                    zero     0x20014938      0x4  WM.o [3]
  .bss                    zero     0x2001493c      0x4  WM.o [3]
  .bss                    zero     0x20014940      0x4  WM.o [3]
  .bss                    zero     0x20014944      0x4  WM.o [3]
  .bss                    zero     0x20014948      0x4  WM.o [3]
  .bss                    zero     0x2001494c      0x4  WM_SetCaptureMove.o [3]
  .bss                    zero     0x20014950      0x4  WM__Private.o [3]
  .bss                    zero     0x20014954      0x4  LCD_Color.o [3]
  .bss                    zero     0x20014958      0x4  GUIDEV_Banding.o [3]
  .bss                    zero     0x2001495c      0x4  GUIDEV_16.o [3]
  .bss                    zero     0x20014960      0x4  WIDGET_Effect_Simple.o [3]
  .bss                    zero     0x20014964      0x4  xfail_s.o [4]
  .bss                    zero     0x20014968      0x2  ILI93xx.o [1]
  .bss                    zero     0x2001496a      0x2  GUI_Core.o [3]
  .bss                    zero     0x2001496c      0x2  GUI_Core.o [3]
  .bss                    zero     0x2001496e      0x2  GUI_Core.o [3]
  .bss                    zero     0x20014970      0x2  WM.o [3]
  .bss                    zero     0x20014972      0x2  WM.o [3]
  .bss                    zero     0x20014974      0x1  GUI_Core.o [3]
  .bss                    zero     0x20014975      0x1  GUI_Core.o [3]
  .bss                    zero     0x20014976      0x1  GUI_Core.o [3]
  .bss                    zero     0x20014977      0x1  GUI_Core.o [3]
  .bss                    zero     0x20014978      0x1  WM.o [3]
  .bss                    zero     0x20014979      0x1  WM.o [3]
                                 - 0x2001497a  0x1458e

"P2", part 3 of 3:                               0x400
  CSTACK                           0x20014980    0x400  <Block>
    CSTACK                uninit   0x20014980    0x400  <Block tail>
                                 - 0x20014d80    0x400


*******************************************************************************
*** INIT TABLE
***

          Address     Size
          -------     ----
Zero (__iar_zero_init3)
    1 destination range, total size 0x1458e:
          0x200003ec  0x1458e

Copy/lz77 (__iar_lz77_init_single3)
    1 source range, total size 0x257 (59% of destination):
          0x0801e98c    0x257
    1 destination range, total size 0x3e9:
          0x20000000    0x3e9



*******************************************************************************
*** MODULE SUMMARY
***

    Module                          ro code  ro data  rw data
    ------                          -------  -------  -------
D:\project_file\famil_tnb\EWARM\famil_tnb\Obj: [1]
    FramewinDLG.o                       136      148
    GUIConf.o                            44                 4
    GUI_X_OS.o                          188                 8
    GUI_X_Touch_Analog.o                 24
    ILI93xx.o                         2 662    6 081       20
    LCDConf_FlexColor_Template.o        256
    crc.o                                80                 8
    delay.o                             100
    dht11.o                             420       28
    ds3231.o                            588                16
    fsmc.o                              316                84
    gpio.o                              404
    heap_4.o                            632        4   76 824
    i2c.o                               208                84
    list.o                              154
    main.o                              718      252       40
    mylib.o                             400      112        4
    port.o                              604        6        9
    portasm.o                           168
    queue.o                           1 964                64
    spi.o                               256                88
    startup_stm32f407xx.o               716
    stm32f4xx_hal.o                     216        3        9
    stm32f4xx_hal_cortex.o              350
    stm32f4xx_hal_crc.o                  36
    stm32f4xx_hal_dma.o                  40
    stm32f4xx_hal_gpio.o                636
    stm32f4xx_hal_i2c.o               4 800
    stm32f4xx_hal_msp.o                  72
    stm32f4xx_hal_rcc.o               1 596
    stm32f4xx_hal_spi.o               1 108
    stm32f4xx_hal_sram.o                 92
    stm32f4xx_hal_uart.o              2 184
    stm32f4xx_it.o                       92
    stm32f4xx_ll_fsmc.o                 236
    system_stm32f4xx.o                   32       27        4
    tasks.o                           2 844        8      260
    timers.o                          1 072       16       60
    touch.o                           3 824      216       90
    usart.o                             848               256
    w25qxx.o                            664        8    4 096
    ---------------------------------------------------------
    Total:                           31 780    6 909   82 028

command line: [2]
    ---------------------------------------------------------
    Total:

STemWin_CM4_OS_wc16.a: [3]
    BUTTON.o                            690       33       60
    BUTTON_Skin.o                       186        7       12
    BUTTON_SkinFlex.o                   568       92      128
    DIALOG.o                            178
    F13_1.o                                    2 155
    F13_ASCII.o                                2 082
    F6x8.o                                     1 852
    FRAMEWIN.o                        2 114       27       44
    FRAMEWIN_Skin.o                     362       12       20
    FRAMEWIN_SkinFlex.o                 888       52       88
    FRAMEWIN__UpdateButtons.o           234
    GRAPH.o                           1 712       28       48
    GUICC_0.o                           194       24
    GUICC_8888.o                         40       24
    GUICC_8888_Index2Color.o              2
    GUICC_888_Index2Color.o               2
    GUICC_M565.o                        278       24        8
    GUIDEV.o                            876
    GUIDEV_16.o                       2 602      116        4
    GUIDEV_32.o                       2 540      116
    GUIDEV_Banding.o                    368                 4
    GUIDEV_Clear.o                       76
    GUIDEV_GetDataPtr.o                  42
    GUIDEV_GetYSize.o                    56
    GUIDEV_ReduceYSize.o                 56
    GUIDEV_SetOrg.o                     100
    GUIDEV_StaticDevices.o              384        1        1
    GUIDEV_Usage.o                       88
    GUIDEV_UsageBM.o                    432       24
    GUIDEV_Write.o                      120
    GUIDEV_WriteToActiveAlpha.o         388
    GUIDEV_WriteToActiveOpaque.o      1 996
    GUIDRV_FlexColor.o                1 562      116       28
    GUIDRV_FlexColor_16bpp_C0B16.o    1 694
    GUIDRV_FlexColor_Func66709.o        916       13        8
    GUI_2DLib.o                         144
    GUI_ARRAY.o                         204
    GUI_Alloc.o                       1 574               204
    GUI_Char.o                          104
    GUI_CharLine.o                      506        2        4
    GUI_CharM.o                         400
    GUI_CharP.o                         338
    GUI_Circ.o                          192
    GUI_Common.o                      1 102        4        7
    GUI_Core.o                          836       32      250
    GUI_Cursor.o                        456                76
    GUI_CursorResource.o                       5 288       60
    GUI_DRAW.o                           50
    GUI_Device.o                        352
    GUI_DispString.o                    418
    GUI_DrawBitmap.o                    256
    GUI_DrawGradient.o                  636
    GUI_DrawLib.o                       388
    GUI_DrawLine.o                    1 202       68
    GUI_FillPolygon.o                   532                28
    GUI_MULTIBUF.o                      196                44
    GUI_OnKey.o                          76        5      104
    GUI_PID.o                           304        5       96
    GUI_SPRITE.o                      6 808       52
    GUI_SelectLayer.o                   208                 8
    GUI_SetAlpha.o                       36
    GUI_TOUCH.o                          80                16
    GUI_TOUCH_Calibrate.o               964                36
    GUI_TOUCH_DriverAnalog.o            356        5       55
    GUI_TOUCH_StoreState.o               12                12
    GUI_Task.o                          408        5       28
    GUI_Time.o                          112        3        4
    GUI_Timer.o                         882                20
    GUI_UC.o                             76
    GUI_UC_EncodeNone.o                  18       16
    GUI_WaitEvent.o                      16                 8
    GUI__Alpha.o                        940        5       40
    GUI__CompactPixelIndices.o          770
    GUI__DivTbl.o                                880
    GUI__DrawTwinArc.o                  936
    GUI__ExpandPixelIndices.o           380
    GUI__ManageCache.o                  236                24
    GUI__Private.o                      602        6        8
    LCD.o                             1 804       15        4
    LCD_AA.o                             88       14       24
    LCD_Color.o                         336        4       20
    LCD_GetColorIndex.o                  32
    LCD_GetEx.o                         462                 8
    LCD_GetNumDisplays.o                 30
    LCD_Mirror.o                                 256
    LCD_ReadRect.o                      516
    LCD_SelectLCD.o                      64
    LCD_Set.o                           286
    LCD_SetClipRectEx.o                  48
    LCD_UpdateColorIndices.o             36
    SCROLLBAR.o                       1 570       16       26
    SCROLLBAR_Skin.o                    582        7       12
    SCROLLBAR_SkinFlex.o              1 080       53       88
    WIDGET.o                            864        2        4
    WIDGET_Effect_Simple.o               84       28        4
    WM.o                              5 184               130
    WM_BringToTop.o                     132
    WM_GetWindowSize.o                  140
    WM_Hide.o                            56
    WM_Lib.o                          2 196
    WM_MULTIBUF.o                       120        8
    WM_MemDev.o                          38
    WM_Move.o                           312
    WM_PID__GetPrevState.o               20                24
    WM_Screen2Win.o                     194
    WM_SetCapture.o                     130
    WM_SetCaptureMove.o                 156                 4
    WM_SetFocusOnNextChild.o            138
    WM_SetFocusOnPrevChild.o             96
    WM_SetScrollbar.o                   154
    WM_SetTrans.o                        72
    WM_Timer.o                          334
    WM_Touch.o                        1 148        2       92
    WM__Private.o                       738                 4
    ---------------------------------------------------------
    Total:                           65 090   13 579    2 029

dl7M_tlf.a: [4]
    abort.o                               6
    abs.o                                 8
    exit.o                                4
    low_level_init.o                      4
    printf.o                             40
    putchar.o                            12
    xencoding_8859_1.o                   30
    xfail_s.o                            68                 4
    xfiles.o                                      43      152
    xlocale_c.o                         116       83      128
    xmbcurmax.o                          10
    xprintffull.o                     3 954
    xprout.o                             22
    ---------------------------------------------------------
    Total:                            4 274      126      284

m7M_tls.a: [5]
    DblAdd.o                            360
    DblCmpGe.o                           46
    DblCmpLe.o                           46
    DblDiv.o                            582
    DblMul.o                            418
    DblSub.o                            226
    DblToS32.o                           58
    DblToU32.o                           40
    FltToDbl.o                           72
    S32ToDbl.o                           34
    U32ToDbl.o                           26
    fpinit_M.o                           34
    frexp.o                             112
    ldexp.o                             314
    sqrt.o                              258
    ---------------------------------------------------------
    Total:                            2 626

rt7M_tl.a: [6]
    ABImemclr4.o                          6
    ABImemcpy.o                         166
    ABImemmove.o                        150
    ABImemset.o                         102
    ABImemset48.o                        50
    I64DivMod.o                         238
    I64DivZer.o                           2
    cexit.o                              10
    cmain.o                              26
    cstartup_M.o                         12
    data_init.o                          40
    lz77_init_single.o                  122
    memchr.o                             88
    memcmp.o                            104
    memcpy.o                             12
    memmove.o                            12
    memset.o                             20
    strchr.o                             22
    strcpy.o                             76
    strlen.o                             54
    zero_init3.o                         64
    ---------------------------------------------------------
    Total:                            1 376

shb_l.a: [7]
    exit.o                               20
    ---------------------------------------------------------
    Total:                               20

    Gaps                                 96       15        2
    Linker created                                32    1 024
-------------------------------------------------------------
    Grand Total:                    105 262   20 661   85 367


*******************************************************************************
*** ENTRY LIST
***

Entry                      Address     Size  Type      Object
-----                      -------     ----  ----      ------
.iar.init_table$$Base   0x0801e1a4            --   Gb  - Linker created -
.iar.init_table$$Limit  0x0801e1c4            --   Gb  - Linker created -
?main                   0x0801e31d           Code  Gb  cmain.o [6]
AHBPrescTable           0x0801e588     0x10  Data  Gb  system_stm32f4xx.o [1]
APBPrescTable           0x0801e75c      0x8  Data  Gb  system_stm32f4xx.o [1]
API                     0x0801e3dc     0x18  Data  Lc  GUIDEV_UsageBM.o [3]
Addr.9870               0x20014658      0x4  Data  Lc  GUIDRV_FlexColor.o [3]
BACK_COLOR              0x200003dc      0x2  Data  Gb  ILI93xx.o [1]
BCD2HEX                 0x08004ee9     0x1a  Code  Gb  ds3231.o [1]
BUTTON_Callback         0x0801be59     0xd8  Code  Gb  BUTTON.o [3]
BUTTON_CreateIndirect   0x0801da91     0x46  Code  Gb  BUTTON.o [3]
BUTTON_CreateUser       0x0801c8c9     0x88  Code  Gb  BUTTON.o [3]
BUTTON_DrawSkinFlex     0x0801998d    0x238  Code  Gb  BUTTON_SkinFlex.o [3]
BUTTON_SetText          0x0801d3b5     0x5c  Code  Gb  BUTTON.o [3]
BUTTON__DefaultProps    0x20000058     0x30  Data  Gb  BUTTON.o [3]
BUTTON__Skin            0x200001a8      0xc  Data  Gb  BUTTON_Skin.o [3]
BUTTON__pSkinDefault    0x20000088      0x4  Data  Gb  BUTTON.o [3]
B_BCD                   0x08004f03     0x24  Code  Gb  ds3231.o [1]
BusFault_Handler        0x0801d347      0x2  Code  Gb  stm32f4xx_it.o [1]
CMD_RDX                 0x200003df      0x1  Data  Gb  touch.o [1]
CMD_RDY                 0x200003e0      0x1  Data  Gb  touch.o [1]
CSTACK$$Base            0x20014980            --   Gb  - Linker created -
CSTACK$$Limit           0x20014d80            --   Gb  - Linker created -
CacheMore               0x0800ae85     0x24  Code  Lc  xlocale_c.o [4]
CheckCrc8               0x080051bd     0x3e  Code  Gb  mylib.o [1]
CreateFramewin          0x08007049     0x1e  Code  Gb  FramewinDLG.o [1]
DHT11_Check             0x0800533f     0x52  Code  Gb  dht11.o [1]
DHT11_DQ_IN             0x0800530f     0x10  Code  Gb  dht11.o [1]
DHT11_DQ_OUT            0x080052ed     0x22  Code  Gb  dht11.o [1]
DHT11_IO_IN             0x0800355f     0x24  Code  Gb  gpio.o [1]
DHT11_IO_OUT            0x08003583     0x28  Code  Gb  gpio.o [1]
DHT11_Init              0x0800545b     0x26  Code  Gb  dht11.o [1]
DHT11_Read_Bit          0x08005391     0x4c  Code  Gb  dht11.o [1]
DHT11_Read_Byte         0x080053dd     0x1e  Code  Gb  dht11.o [1]
DHT11_Read_Data         0x080053fb     0x60  Code  Gb  dht11.o [1]
DHT11_Rst               0x0800531f     0x20  Code  Gb  dht11.o [1]
DS3231_Init             0x08004f7d     0x20  Code  Gb  ds3231.o [1]
DS3231_RD_Byte          0x08004f4d     0x30  Code  Gb  ds3231.o [1]
DS3231_WR_Byte          0x08004f27     0x26  Code  Gb  ds3231.o [1]
DebugMon_Handler        0x0801d34b      0x2  Code  Gb  stm32f4xx_it.o [1]
Error_Handler           0x08002ea5      0x2  Code  Gb  main.o [1]
FRAMEWIN_Callback       0x080195d9    0x27c  Code  Gb  FRAMEWIN.o [3]
FRAMEWIN_CreateIndirect
                        0x0801db1b     0x44  Code  Gb  FRAMEWIN.o [3]
FRAMEWIN_CreateUser     0x0801b501    0x10c  Code  Gb  FRAMEWIN.o [3]
FRAMEWIN_DrawSkinFlex   0x0801845d    0x378  Code  Gb  FRAMEWIN_SkinFlex.o [3]
FRAMEWIN_GetActive      0x080187d5     0x2e  Code  Gb  FRAMEWIN.o [3]
FRAMEWIN_SetActive      0x0801990d     0x1e  Code  Gb  FRAMEWIN.o [3]
FRAMEWIN_SetText        0x0800a281     0x48  Code  Gb  FRAMEWIN.o [3]
FRAMEWIN_SetTitleHeight
                        0x0800a2c9     0x7e  Code  Gb  FRAMEWIN.o [3]
FRAMEWIN__CalcPositions
                        0x0800cd67     0xec  Code  Gb  FRAMEWIN.o [3]
FRAMEWIN__CalcTitleHeight
                        0x0800bed9     0x22  Code  Gb  FRAMEWIN.o [3]
FRAMEWIN__DefaultProps  0x2000008c     0x28  Data  Gb  FRAMEWIN.o [3]
FRAMEWIN__GetBorderSize
                        0x0801db5f     0x44  Code  Gb  FRAMEWIN.o [3]
FRAMEWIN__GetTitleLimits
                        0x0800e509     0x8a  Code  Gb  FRAMEWIN.o [3]
FRAMEWIN__Skin          0x20000210      0xc  Data  Gb  FRAMEWIN_Skin.o [3]
FRAMEWIN__UpdateButtons
                        0x0800bf69     0xea  Code  Gb  FRAMEWIN__UpdateButtons.o [3]
FRAMEWIN__UpdatePositions
                        0x0800befb     0x6e  Code  Gb  FRAMEWIN.o [3]
FRAMEWIN__cbClient      0x0801bbd9     0xe2  Code  Lc  FRAMEWIN.o [3]
FRAMEWIN__pSkinDefault  0x200000b4      0x4  Data  Gb  FRAMEWIN.o [3]
FSMC_Initialized        0x20014870      0x4  Data  Lc  fsmc.o [1]
FSMC_NORSRAM_Extended_Timing_Init
                        0x0800a5e1     0x44  Code  Gb  stm32f4xx_ll_fsmc.o [1]
FSMC_NORSRAM_Init       0x0800a541     0x5a  Code  Gb  stm32f4xx_ll_fsmc.o [1]
FSMC_NORSRAM_Timing_Init
                        0x0800a59b     0x46  Code  Gb  stm32f4xx_ll_fsmc.o [1]
GL_DrawBitmap           0x0800dd8d     0xa8  Code  Gb  GUI_DrawBitmap.o [3]
GL_DrawLine             0x08015b15     0x16  Code  Gb  GUI_DrawLine.o [3]
GL_DrawLine1Ex          0x08015edd    0x1ac  Code  Gb  GUI_DrawLine.o [3]
GL_DrawLineEx           0x08015cb1    0x1b0  Code  Gb  GUI_DrawLine.o [3]
GL_DrawPoint            0x080162c1     0x20  Code  Gb  GUI_DrawLib.o [3]
GL_FillCircle           0x08016441     0xc0  Code  Gb  GUI_Circ.o [3]
GL_FillPolygon          0x080160ed    0x1d4  Code  Gb  GUI_FillPolygon.o [3]
GL_SetDefault           0x0801b1b5     0x48  Code  Gb  GUI_Common.o [3]
GRAPH_Callback          0x08014df5    0x4f2  Code  Gb  GRAPH.o [3]
GRAPH_CreateIndirect    0x0801dce5     0x3c  Code  Gb  GRAPH.o [3]
GRAPH_CreateUser        0x0801c831     0x90  Code  Gb  GRAPH.o [3]
GRAPH__DefaultProps     0x200000b8     0x30  Data  Gb  GRAPH.o [3]
GUIDRV_FlexColor_API    0x0801cd08     0x34  Data  Gb  GUIDRV_FlexColor.o [3]
GUIDRV_FlexColor_Config
                        0x0800c641     0x3c  Code  Gb  GUIDRV_FlexColor.o [3]
GUIDRV_FlexColor_SetFunc
                        0x0800c67d     0x32  Code  Gb  GUIDRV_FlexColor.o [3]
GUIDRV_FlexColor_SetFunc66709
                        0x0801ce99     0x6c  Code  Gb  GUIDRV_FlexColor_Func66709.o [3]
GUIDRV_FlexColor_SetMode16bppC0B16
                        0x0801d081     0x68  Code  Gb  GUIDRV_FlexColor_16bpp_C0B16.o [3]
GUIDRV_FlexColor__GetPixelIndexNoCache
                        0x0801c45d     0xb2  Code  Gb  GUIDRV_FlexColor.o [3]
GUIDRV_FlexColor__InitOnce
                        0x0800d70d     0x3c  Code  Gb  GUIDRV_FlexColor.o [3]
GUIDRV_FlexColor__SetLog2Phys
                        0x0801d9b9     0x48  Code  Gb  GUIDRV_FlexColor.o [3]
GUIDRV_FlexColor__SetPixelIndexNoCache
                        0x0801c951     0x88  Code  Gb  GUIDRV_FlexColor.o [3]
GUIMONO_DispChar        0x0801b3c5    0x13c  Code  Gb  GUI_CharM.o [3]
GUIMONO_GetCharDistX    0x0801e3f5     0x18  Code  Gb  GUI_CharM.o [3]
GUIMONO_GetFontInfo     0x0800af8f      0x6  Code  Gb  GUI_CharM.o [3]
GUIMONO_IsInFont        0x08007717     0x36  Code  Gb  GUI_CharM.o [3]
GUIPROP_DispChar        0x0801bab1     0xec  Code  Gb  GUI_CharP.o [3]
GUIPROP_GetCharDistX    0x0801dd21     0x3c  Code  Gb  GUI_CharP.o [3]
GUIPROP_GetFontInfo     0x0800aff7      0x6  Code  Gb  GUI_CharP.o [3]
GUIPROP_IsInFont        0x0801e5c9     0x10  Code  Gb  GUI_CharP.o [3]
GUIPROP__FindChar       0x0801bb9d     0x14  Code  Gb  GUI_CharP.o [3]
GUITASK_CopyContext     0x0800a1d9     0x70  Code  Gb  GUI_Task.o [3]
GUITASK_Init            0x0800b7a9     0x4c  Code  Gb  GUI_Task.o [3]
GUITASK__EntranceCnt    0x20014760      0x4  Data  Gb  GUI_Task.o [3]
GUI_AA__ClipX0          0x20014910      0x4  Data  Wk  GUI_Core.o [3]
GUI_ALLOC_AllocNoInit   0x0800ccdd     0x1a  Code  Gb  GUI_Alloc.o [3]
GUI_ALLOC_AllocZero     0x0800c81d     0x3c  Code  Gb  GUI_Alloc.o [3]
GUI_ALLOC_AssignMemory  0x0800c4f9     0x10  Code  Gb  GUI_Alloc.o [3]
GUI_ALLOC_Free          0x0800d231     0x30  Code  Gb  GUI_Alloc.o [3]
GUI_ALLOC_FreeFixedBlock
                        0x0800e0c5     0x14  Code  Gb  GUI_Alloc.o [3]
GUI_ALLOC_FreePtr       0x0800cd45     0x1a  Code  Gb  GUI_Alloc.o [3]
GUI_ALLOC_FreePtrArray  0x0801bf31     0x1a  Code  Gb  GUI_Alloc.o [3]
GUI_ALLOC_GetFixedBlock
                        0x0800c515     0xa4  Code  Gb  GUI_Alloc.o [3]
GUI_ALLOC_GetMaxSize    0x0800f84d     0x3c  Code  Gb  GUI_Alloc.o [3]
GUI_ALLOC_GetSize       0x0800ccc5     0x18  Code  Gb  GUI_Alloc.o [3]
GUI_ALLOC_Lock          0x0800a50d     0x10  Code  Gb  GUI_Alloc.o [3]
GUI_ALLOC_LockH         0x0800be11     0x1c  Code  Gb  GUI_Alloc.o [3]
GUI_ALLOC_RequestSize   0x08010359     0x38  Code  Gb  GUI_Alloc.o [3]
GUI_ALLOC_Unlock        0x0800a531     0x10  Code  Gb  GUI_Alloc.o [3]
GUI_ALLOC_UnlockH       0x0800be2d     0x30  Code  Gb  GUI_Alloc.o [3]
GUI_ALLOC_h2p           0x0800c2ad     0x14  Code  Gb  GUI_Alloc.o [3]
GUI_ARRAY_Create        0x0801c8c1      0x6  Code  Gb  GUI_ARRAY.o [3]
GUI_ARRAY_Delete        0x080157c9     0x52  Code  Gb  GUI_ARRAY.o [3]
GUI_ARRAY_GetNumItems   0x08015785     0x1e  Code  Gb  GUI_ARRAY.o [3]
GUI_ARRAY_GethItem      0x080157a3     0x26  Code  Gb  GUI_ARRAY.o [3]
GUI_ARRAY__GethItem     0x08015bb9     0x30  Code  Gb  GUI_ARRAY.o [3]
GUI_CURSOR_SelectEx     0x0800bd15     0xcc  Code  Gb  GUI_Cursor.o [3]
GUI_CURSOR_SetPositionEx
                        0x080179d9     0x6c  Code  Gb  GUI_Cursor.o [3]
GUI_CURSOR_Show         0x08006fe1     0x10  Code  Gb  GUI_Cursor.o [3]
GUI_CURSOR_ShowEx       0x0800a249     0x38  Code  Gb  GUI_Cursor.o [3]
GUI_CalcColorDist       0x0801d7d9     0x4a  Code  Gb  GUI_Common.o [3]
GUI_CharLine_pfLog2Vis  0x2000028c      0x4  Data  Gb  GUI_CharLine.o [3]
GUI_Clear               0x0800ca6d     0x20  Code  Gb  GUI_Core.o [3]
GUI_ClearRect           0x0800dc21     0x6c  Code  Gb  GUI_Core.o [3]
GUI_CreateDialogBox     0x0800a3d1     0xb2  Code  Gb  DIALOG.o [3]
GUI_CursorAnimHourglassM
                        0x08000188     0x18  Data  Gb  GUI_CursorResource.o [3]
GUI_CursorArrowL        0x08001524      0xc  Data  Gb  GUI_CursorResource.o [3]
GUI_CursorArrowLI       0x08001504      0xc  Data  Gb  GUI_CursorResource.o [3]
GUI_CursorArrowM        0x080014a8      0xc  Data  Gb  GUI_CursorResource.o [3]
GUI_CursorArrowMI       0x08001488      0xc  Data  Gb  GUI_CursorResource.o [3]
GUI_CursorArrowS        0x08001438      0xc  Data  Gb  GUI_CursorResource.o [3]
GUI_CursorArrowSI       0x08001418      0xc  Data  Gb  GUI_CursorResource.o [3]
GUI_CursorCrossL        0x08001300      0xc  Data  Gb  GUI_CursorResource.o [3]
GUI_CursorCrossLI       0x080012e0      0xc  Data  Gb  GUI_CursorResource.o [3]
GUI_CursorCrossM        0x08001240      0xc  Data  Gb  GUI_CursorResource.o [3]
GUI_CursorCrossMI       0x08001220      0xc  Data  Gb  GUI_CursorResource.o [3]
GUI_CursorCrossS        0x080011dc      0xc  Data  Gb  GUI_CursorResource.o [3]
GUI_CursorCrossSI       0x080011bc      0xc  Data  Gb  GUI_CursorResource.o [3]
GUI_CursorHeaderM       0x08001144      0xc  Data  Gb  GUI_CursorResource.o [3]
GUI_CursorHeaderMI      0x08001124      0xc  Data  Gb  GUI_CursorResource.o [3]
GUI_DCACHE_Clear        0x0801d46d     0x24  Code  Gb  GUI_Core.o [3]
GUI_DEVICE_Create       0x0800d6c1     0x4c  Code  Gb  GUI_Device.o [3]
GUI_DEVICE_CreateAndLink
                        0x0800c5b9     0x28  Code  Gb  GUI_Device.o [3]
GUI_DEVICE_Delete       0x0800e0d9      0x4  Code  Gb  GUI_Device.o [3]
GUI_DEVICE_Link         0x0800d441     0x84  Code  Gb  GUI_Device.o [3]
GUI_DEVICE_LinkDevices  0x0800c369     0x10  Code  Gb  GUI_Device.o [3]
GUI_DEVICE_Unlink       0x0800eaf5     0x30  Code  Gb  GUI_Device.o [3]
GUI_DEVICE_UnlinkTaskDevices
                        0x0800c365      0x4  Code  Gb  GUI_Device.o [3]
GUI_DEVICE__GetpDriver  0x0800b98d     0x20  Code  Gb  GUI_Device.o [3]
GUI_DRAW__Draw          0x08019e35     0x32  Code  Gb  GUI_DRAW.o [3]
GUI_Delay               0x08007099     0x6c  Code  Gb  GUI_Time.o [3]
GUI_DispStringInRect    0x08018ad1      0x8  Code  Gb  GUI_DispString.o [3]
GUI_DispStringInRectMax
                        0x08018d6d     0x4e  Code  Gb  GUI_DispString.o [3]
GUI_DrawBitmap          0x0800ca8d     0x58  Code  Gb  GUI_DrawBitmap.o [3]
GUI_DrawGradientH       0x0801ce25     0x74  Code  Gb  GUI_DrawGradient.o [3]
GUI_DrawGradientV       0x08018a1d     0x74  Code  Gb  GUI_DrawGradient.o [3]
GUI_DrawHLine           0x080156ed     0x5c  Code  Gb  GUI_DrawLib.o [3]
GUI_DrawLine            0x08015651     0x4c  Code  Gb  GUI_DrawLine.o [3]
GUI_DrawPixel           0x08018979     0x50  Code  Gb  GUI_DrawLib.o [3]
GUI_DrawRect            0x08019da5     0x90  Code  Gb  GUI_2DLib.o [3]
GUI_DrawVLine           0x0801569d     0x50  Code  Gb  GUI_DrawLib.o [3]
GUI_Exec                0x0800a483     0x12  Code  Gb  GUI_Common.o [3]
GUI_Exec1               0x0800c325     0x40  Code  Gb  GUI_Common.o [3]
GUI_F6x8_Mono           0x08013484     0x14  Data  Lc  F6x8.o [3]
GUI_F6x8_TI8859_1       0x08013498      0x8  Data  Lc  F6x8.o [3]
GUI_F6x8_TL8859_1       0x080134a0    0x1c0  Data  Lc  F6x8.o [3]
GUI_FillRect            0x080189c9     0x54  Code  Gb  GUI_DrawLib.o [3]
GUI_FillRectEx          0x08018ad9     0x14  Code  Gb  GUI_DrawLib.o [3]
GUI_Font13ASCII_CharInfo
                        0x080124a0    0x2f8  Data  Lc  F13_ASCII.o [3]
GUI_Font13ASCII_Prop1   0x08012494      0xc  Data  Gb  F13_ASCII.o [3]
GUI_Font13_1            0x08011c04     0x24  Data  Gb  F13_1.o [3]
GUI_Font13_1_CharInfo   0x08011c34    0x300  Data  Lc  F13_1.o [3]
GUI_Font13_1_Prop1      0x08011c28      0xc  Data  Lc  F13_1.o [3]
GUI_Font13_ASCII        0x08012470     0x24  Data  Gb  F13_ASCII.o [3]
GUI_Font6x8             0x08013460     0x24  Data  Gb  F6x8.o [3]
GUI_Font6x9             0x0801343c     0x24  Data  Gb  F6x8.o [3]
GUI_GetBitmapPixelIndex
                        0x0800f1c3     0x18  Code  Gb  GUI_Common.o [3]
GUI_GetBitmapPixelIndexEx
                        0x0800f889     0x88  Code  Gb  GUI_Common.o [3]
GUI_GetBitsPerPixelEx   0x08010bf1     0x14  Code  Gb  LCD_GetEx.o [3]
GUI_GetBkColor          0x0801bbb1     0x18  Code  Gb  GUI_Common.o [3]
GUI_GetCharDistX        0x08019165     0x24  Code  Gb  GUI_Char.o [3]
GUI_GetCharDistXEx      0x08019241     0x28  Code  Gb  GUI_Char.o [3]
GUI_GetClientRect       0x08018fa9      0x8  Code  Gb  GUI_Common.o [3]
GUI_GetColor            0x08018e19     0x18  Code  Gb  GUI_Common.o [3]
GUI_GetCursorLayer      0x0800ca41     0x14  Code  Gb  GUI_SelectLayer.o [3]
GUI_GetFontDistY        0x08018f8d     0x1c  Code  Gb  GUI_Char.o [3]
GUI_GetLayerPosEx       0x080179b1     0x28  Code  Gb  GUI_SelectLayer.o [3]
GUI_GetLineStyle        0x0801561d     0x18  Code  Gb  GUI_Common.o [3]
GUI_GetOrg              0x0800fda1     0x2c  Code  Gb  GUI_Common.o [3]
GUI_GetTime             0x080182c7      0x4  Code  Gb  GUI_Time.o [3]
GUI_GetVersionString    0x0800b765     0x18  Code  Gb  GUI_Common.o [3]
GUI_GetYSizeOfFont      0x0800cd5f      0x8  Code  Gb  GUI_Common.o [3]
GUI_GetpfColor2IndexEx  0x08010c15     0x10  Code  Gb  LCD_GetEx.o [3]
GUI_GetpfIndex2ColorEx  0x08010c05     0x10  Code  Gb  LCD_GetEx.o [3]
GUI_GotoXY              0x0800dc01     0x20  Code  Gb  GUI_Common.o [3]
GUI_Init                0x08006ee5     0xfc  Code  Gb  GUI_Core.o [3]
GUI_Lock                0x0800a495     0x78  Code  Gb  GUI_Task.o [3]
GUI_MEMDEV_Clear        0x0800ff79     0x4c  Code  Gb  GUIDEV_Clear.o [3]
GUI_MEMDEV_CopyToLCD    0x0800ffc5      0xc  Code  Gb  GUIDEV.o [3]
GUI_MEMDEV_CopyToLCDAt  0x08010281     0xac  Code  Gb  GUIDEV.o [3]
GUI_MEMDEV_CreateEx     0x0800fdcd     0x84  Code  Gb  GUIDEV.o [3]
GUI_MEMDEV_DEVICE_16    0x0801cd3c     0x34  Data  Gb  GUIDEV_16.o [3]
GUI_MEMDEV_DEVICE_32    0x0801cdb0     0x34  Data  Gb  GUIDEV_32.o [3]
GUI_MEMDEV_Delete       0x0800d1a5     0x4c  Code  Gb  GUIDEV.o [3]
GUI_MEMDEV_Draw         0x0800fa1d    0x170  Code  Gb  GUIDEV_Banding.o [3]
GUI_MEMDEV_GetBitsPerPixel
                        0x08010bbb     0x34  Code  Gb  GUIDEV.o [3]
GUI_MEMDEV_GetDataPtr   0x08010c25     0x2a  Code  Gb  GUIDEV_GetDataPtr.o [3]
GUI_MEMDEV_GetYSize     0x0800fe51     0x38  Code  Gb  GUIDEV_GetYSize.o [3]
GUI_MEMDEV_Paint1Static
                        0x0801e2d9     0x1c  Code  Gb  GUIDEV_StaticDevices.o [3]
GUI_MEMDEV_ReduceYSize  0x0800fedd     0x38  Code  Gb  GUIDEV_ReduceYSize.o [3]
GUI_MEMDEV_Select       0x0800fe89     0x54  Code  Gb  GUIDEV.o [3]
GUI_MEMDEV_SetOrg       0x0800ff15     0x64  Code  Gb  GUIDEV_SetOrg.o [3]
GUI_MEMDEV_Write        0x0801e2f5      0xc  Code  Gb  GUIDEV_Write.o [3]
GUI_MEMDEV_WriteAt      0x0801cf05     0x6c  Code  Gb  GUIDEV_Write.o [3]
GUI_MEMDEV__CreateFixed
                        0x0801013d    0x124  Code  Gb  GUIDEV.o [3]
GUI_MEMDEV__WriteToActiveAlpha
                        0x0801ada9    0x184  Code  Gb  GUIDEV_WriteToActiveAlpha.o [3]
GUI_MEMDEV__WriteToActiveAt
                        0x0801cf71     0x38  Code  Gb  GUIDEV.o [3]
GUI_MEMDEV__WriteToActiveOpaque
                        0x080103f1    0x74a  Code  Gb  GUIDEV_WriteToActiveOpaque.o [3]
GUI_MULTIBUF_BeginEx    0x0801d0e9     0x68  Code  Gb  GUI_MULTIBUF.o [3]
GUI_MULTIBUF_EndEx      0x0801d411     0x5c  Code  Gb  GUI_MULTIBUF.o [3]
GUI_MergeRect           0x0800e63b     0x56  Code  Gb  GUI_Common.o [3]
GUI_MoveRect            0x0800ebf9     0x20  Code  Gb  GUI_Common.o [3]
GUI_OrgX                0x2001496c      0x2  Data  Wk  GUI_Core.o [3]
GUI_OrgY                0x2001496e      0x2  Data  Wk  GUI_Core.o [3]
GUI_PID_GetState        0x08017961     0x50  Code  Gb  GUI_PID.o [3]
GUI_PID_IsEmpty         0x08017951     0x10  Code  Gb  GUI_PID.o [3]
GUI_PID_StoreState      0x0800b6ad     0xb8  Code  Gb  GUI_PID.o [3]
GUI_PollKeyMsg          0x0800f441     0x3c  Code  Gb  GUI_OnKey.o [3]
GUI_ReadRectEx          0x0801a4b9     0x60  Code  Gb  LCD_ReadRect.o [3]
GUI_RectsIntersect      0x0800f811     0x3a  Code  Gb  GUI_Common.o [3]
GUI_RestoreContext      0x0800f55d     0x14  Code  Gb  GUI_Common.o [3]
GUI_SPRITE_Delete       0x0800cb05     0x4c  Code  Gb  GUI_SPRITE.o [3]
GUI_SPRITE_SetPosition  0x08016679    0x4c4  Code  Gb  GUI_SPRITE.o [3]
GUI_SPRITE_Show         0x0800cc39     0x4c  Code  Gb  GUI_SPRITE.o [3]
GUI_SPRITE__CreateEx    0x0800cb51     0xcc  Code  Gb  GUI_SPRITE.o [3]
GUI_SaveContext_W       0x0800f47d     0x14  Code  Gb  GUI_Common.o [3]
GUI_SelectLCD           0x0800c7e5     0x1a  Code  Gb  GUI_Common.o [3]
GUI_SelectLayer         0x0800ba35     0x38  Code  Gb  GUI_SelectLayer.o [3]
GUI_SetBkColor          0x0800ca55     0x16  Code  Gb  GUI_Common.o [3]
GUI_SetColor            0x0800f545     0x16  Code  Gb  GUI_Common.o [3]
GUI_SetDefaultFont      0x0800c509      0xc  Code  Gb  GUI_Core.o [3]
GUI_SetDrawMode         0x0800ed01     0x18  Code  Gb  GUI_Common.o [3]
GUI_SetFont             0x08018ab1     0x20  Code  Gb  GUI_Common.o [3]
GUI_SetLayerPosEx       0x08017bbb     0x20  Code  Gb  GUI_SelectLayer.o [3]
GUI_SetLayerSizeEx      0x0800cae5     0x20  Code  Gb  GUI_SelectLayer.o [3]
GUI_SetLayerVisEx       0x0800cc1d     0x1c  Code  Gb  GUI_SelectLayer.o [3]
GUI_SetLineStyle        0x08015635     0x1c  Code  Gb  GUI_Common.o [3]
GUI_SetOrg              0x0800a0a9     0x40  Code  Gb  GUI_Common.o [3]
GUI_SetPenSize          0x0801b1fd     0x1c  Code  Gb  GUI_Common.o [3]
GUI_SetTextAlign        0x0801b219     0x20  Code  Gb  GUI_Common.o [3]
GUI_SetTextMode         0x08018a91     0x20  Code  Gb  GUI_Common.o [3]
GUI_SignalEvent         0x0800c4e9     0x10  Code  Gb  GUI_WaitEvent.o [3]
GUI_StoreKey            0x0801bfbd     0x10  Code  Gb  GUI_OnKey.o [3]
GUI_TIMER_Create        0x080182cd     0x9c  Code  Gb  GUI_Timer.o [3]
GUI_TIMER_Delete        0x0800f3d1     0x70  Code  Gb  GUI_Timer.o [3]
GUI_TIMER_Exec          0x0801cbd9     0x78  Code  Gb  GUI_Timer.o [3]
GUI_TIMER_GetFlag       0x0800e7ad     0x36  Code  Gb  GUI_Timer.o [3]
GUI_TIMER_Restart       0x08018391     0x3c  Code  Gb  GUI_Timer.o [3]
GUI_TIMER_SetPeriod     0x08018369     0x28  Code  Gb  GUI_Timer.o [3]
GUI_TIMER__GetFirstTimer
                        0x0800e77d     0x30  Code  Gb  GUI_Timer.o [3]
GUI_TIMER__GetNextTimerLin
                        0x0800e7e3     0x38  Code  Gb  GUI_Timer.o [3]
GUI_TOUCH_CalcCoefficients
                        0x0800d755    0x320  Code  Gb  GUI_TOUCH_Calibrate.o [3]
GUI_TOUCH_Calibrate     0x0800c6b1     0xbc  Code  Gb  GUI_TOUCH_DriverAnalog.o [3]
GUI_TOUCH_CalibratePoint
                        0x080096d9     0x34  Code  Gb  GUI_TOUCH_Calibrate.o [3]
GUI_TOUCH_Exec          0x08005491     0xa8  Code  Gb  GUI_TOUCH_DriverAnalog.o [3]
GUI_TOUCH_GetLayer      0x080096cd      0xc  Code  Gb  GUI_TOUCH_StoreState.o [3]
GUI_TOUCH_StoreStateEx  0x0800970d     0x50  Code  Gb  GUI_TOUCH.o [3]
GUI_TOUCH_TransformPoint
                        0x0800b5d5     0x70  Code  Gb  GUI_TOUCH_Calibrate.o [3]
GUI_TOUCH_X_ActivateX   0x080096b5      0x2  Code  Gb  GUI_X_Touch_Analog.o [1]
GUI_TOUCH_X_ActivateY   0x080096b7      0x2  Code  Gb  GUI_X_Touch_Analog.o [1]
GUI_TOUCH_X_MeasureX    0x080096b9      0xa  Code  Gb  GUI_X_Touch_Analog.o [1]
GUI_TOUCH_X_MeasureY    0x080096c3      0xa  Code  Gb  GUI_X_Touch_Analog.o [1]
GUI_UC_None             0x0801e5a8     0x10  Data  Gb  GUI_UC_EncodeNone.o [3]
GUI_UC__GetCharCodeInc  0x0801913d     0x28  Code  Gb  GUI_UC.o [3]
GUI_UC__NumChars2NumBytes
                        0x08018fe9     0x24  Code  Gb  GUI_UC.o [3]
GUI_USAGE_AddRect       0x080133d5     0x26  Code  Gb  GUIDEV_Usage.o [3]
GUI_USAGE_BM_AddHLine   0x0801cc51     0x78  Code  Lc  GUIDEV_UsageBM.o [3]
GUI_USAGE_BM_AddPixel   0x0801e02d     0x28  Code  Lc  GUIDEV_UsageBM.o [3]
GUI_USAGE_BM_Clear      0x0801e5d9     0x10  Code  Lc  GUIDEV_UsageBM.o [3]
GUI_USAGE_BM_Create     0x08010391     0x60  Code  Gb  GUIDEV_UsageBM.o [3]
GUI_USAGE_BM_GetNextDirty
                        0x0801c65b     0x9c  Code  Lc  GUIDEV_UsageBM.o [3]
GUI_USAGE_DecUseCnt     0x0800e84b     0x32  Code  Gb  GUIDEV_Usage.o [3]
GUI_Unlock              0x0800a51d     0x14  Code  Gb  GUI_Task.o [3]
GUI_X_Config            0x0800b77d     0x2c  Code  Gb  GUIConf.o [1]
GUI_X_Delay             0x08009e9d      0xc  Code  Gb  GUI_X_OS.o [1]
GUI_X_GetTaskId         0x08009f3f      0x8  Code  Gb  GUI_X_OS.o [1]
GUI_X_GetTime           0x08009e95      0x8  Code  Gb  GUI_X_OS.o [1]
GUI_X_Init              0x08009ea9      0x2  Code  Gb  GUI_X_OS.o [1]
GUI_X_InitOS            0x08009eab     0x62  Code  Gb  GUI_X_OS.o [1]
GUI_X_Lock              0x08009f1f     0x20  Code  Gb  GUI_X_OS.o [1]
GUI_X_Unlock            0x08009f0d     0x12  Code  Gb  GUI_X_OS.o [1]
GUI__AllocAlphaBuffer   0x0801af2d     0x1a  Code  Gb  GUI__Alpha.o [3]
GUI__AlphaPreserveTrans
                        0x0801b0b9     0x24  Code  Gb  GUI_SetAlpha.o [3]
GUI__BkColorDefault     0x200140b4      0x4  Data  Gb  GUI_Core.o [3]
GUI__BufferSize         0x2001490c      0x4  Data  Wk  GUI_Core.o [3]
GUI__ColorDefault       0x200000f4      0x4  Data  Gb  GUI_Core.o [3]
GUI__CompactPixelIndices
                        0x0800fc35    0x15e  Code  Gb  GUI__CompactPixelIndices.o [3]
GUI__CompactPixelIndicesEx
                        0x0801af47      0xe  Code  Gb  GUI__CompactPixelIndices.o [3]
GUI__Config             0x08009dfd     0x98  Code  Gb  GUI_Core.o [3]
GUI__Context            0x200140b8     0x74  Data  Lc  GUI_Core.o [3]
GUI__ConvertColor2Index
                        0x0801ac11    0x196  Code  Gb  GUI__CompactPixelIndices.o [3]
GUI__DispLine           0x08019095     0xa8  Code  Gb  GUI_CharLine.o [3]
GUI__DispStringInRect   0x08018e31    0x14c  Code  Gb  GUI_DispString.o [3]
GUI__DivideRound32      0x08018105     0x18  Code  Gb  GUI__Private.o [3]
GUI__DoAlphaBlending    0x0801a22d    0x1d4  Code  Gb  GUI__Alpha.o [3]
GUI__DrawTwinArc2       0x08018805    0x174  Code  Gb  GUI__DrawTwinArc.o [3]
GUI__DrawTwinArc4       0x08019bc5    0x1e0  Code  Gb  GUI__DrawTwinArc.o [3]
GUI__ExpandPixelIndicesEx
                        0x0801a519    0x17c  Code  Gb  GUI__ExpandPixelIndices.o [3]
GUI__GetAlphaBuffer     0x0801a401     0xb8  Code  Gb  GUI__Alpha.o [3]
GUI__GetLineDistX       0x08019035     0x60  Code  Gb  GUI_CharLine.o [3]
GUI__GetLineNumChars    0x08018fb1     0x38  Code  Gb  GUI_CharLine.o [3]
GUI__GetOverlap         0x08019189     0x1c  Code  Gb  GUI_CharLine.o [3]
GUI__HandleEOLine       0x0801900d     0x26  Code  Gb  GUI__Private.o [3]
GUI__IntersectRect      0x0800db65     0x3a  Code  Gb  GUI__Private.o [3]
GUI__IntersectRects     0x0800f6e3     0x56  Code  Gb  GUI__Private.o [3]
GUI__LayerMask          0x20014914      0x4  Data  Wk  GUI_Core.o [3]
GUI__ManageCache        0x0800ea3d     0x10  Code  Gb  GUI__ManageCache.o [3]
GUI__ManageCacheEx      0x0800f571     0xdc  Code  Gb  GUI__ManageCache.o [3]
GUI__MixColors          0x08005f9f     0x56  Code  Gb  GUI__Alpha.o [3]
GUI__MixColorsBulk      0x0801c9d9     0x88  Code  Gb  GUI__Alpha.o [3]
GUI__NumLayersInUse     0x20014977      0x1  Data  Wk  GUI_Core.o [3]
GUI__PreserveTrans      0x20014975      0x1  Data  Wk  GUI_Core.o [3]
GUI__ReduceRect         0x08015749     0x1c  Code  Gb  GUI__Private.o [3]
GUI__RegisterExit       0x0800b8f5     0x28  Code  Gb  GUI_Core.o [3]
GUI__SetText            0x0800be5d     0x7c  Code  Gb  GUI__Private.o [3]
GUI__aConvert_15_255    0x080195c8     0x10  Data  Gb  GUI__DivTbl.o [3]
GUI__aConvert_255_15    0x08019468    0x100  Data  Gb  GUI__DivTbl.o [3]
GUI__aConvert_255_31    0x08019368    0x100  Data  Gb  GUI__DivTbl.o [3]
GUI__aConvert_255_63    0x08019268    0x100  Data  Gb  GUI__DivTbl.o [3]
GUI__aConvert_31_255    0x080195a8     0x20  Data  Gb  GUI__DivTbl.o [3]
GUI__aConvert_63_255    0x08019568     0x40  Data  Gb  GUI__DivTbl.o [3]
GUI__aNumBuffers        0x2001496a      0x2  Data  Wk  GUI_Core.o [3]
GUI__apDevice           0x20014828      0x8  Data  Wk  GUI_Core.o [3]
GUI__memset16           0x0801ba4d     0x64  Code  Gb  GUI__Private.o [3]
GUI__pFontDefault       0x200000f0      0x4  Data  Gb  GUI_Core.o [3]
GUI__pfMemcpy           0x20000120      0x4  Data  Gb  GUI__Private.o [3]
GUI__pfMemset           0x20000124      0x4  Data  Gb  GUI__Private.o [3]
GUI__pfMixColors        0x20000284      0x4  Data  Gb  GUI__Alpha.o [3]
GUI__pfMixColorsBulk    0x20000288      0x4  Data  Gb  GUI__Alpha.o [3]
GUI__sqrt32             0x08018df5     0x24  Code  Gb  GUI__Private.o [3]
GUI__strcmp             0x0800e399     0x2c  Code  Gb  GUI__Private.o [3]
GUI__strcmp_hp          0x0800cc85     0x28  Code  Gb  GUI__Private.o [3]
GUI__strlen             0x0800ccad     0x18  Code  Gb  GUI__Private.o [3]
GUI_acFont6x8           0x08013660    0x518  Data  Lc  F6x8.o [3]
GUI_cos                 0x08016089      0x8  Code  Gb  GUI_DrawLine.o [3]
GUI_pContext            0x200000f8      0x4  Data  Gb  GUI_Core.o [3]
GUI_pLCD_APIList        0x20014918      0x4  Data  Wk  GUI_Core.o [3]
GUI_pUC_API             0x200148f8      0x4  Data  Wk  GUI_Core.o [3]
GUI_pfDispCharLine      0x20014908      0x4  Data  Wk  GUI_Core.o [3]
GUI_pfDispCharStyle     0x20014904      0x4  Data  Wk  GUI_Core.o [3]
GUI_pfExecAnimations    0x200148f0      0x4  Data  Wk  GUI_Core.o [3]
GUI_pfGetpPalConvTable  0x200000ec      0x4  Data  Gb  GUI_Core.o [3]
GUI_pfTimerExec         0x200148fc      0x4  Data  Wk  GUI_Core.o [3]
GUI_pfUpdateSoftLayer   0x200148f4      0x4  Data  Wk  GUI_Core.o [3]
GUI_sin                 0x08016091     0x5c  Code  Gb  GUI_DrawLine.o [3]
Get_DS3231_Time         0x0800504f     0xde  Code  Gb  ds3231.o [1]
HAL_CRC_Init            0x08007795     0x24  Code  Gb  stm32f4xx_hal_crc.o [1]
HAL_CRC_MspInit         0x080033f1     0x2a  Code  Gb  crc.o [1]
HAL_DMA_Abort_IT        0x08007c69     0x28  Code  Gb  stm32f4xx_hal_dma.o [1]
HAL_Delay               0x08008699     0x28  Code  Wk  stm32f4xx_hal.o [1]
HAL_FSMC_MspInit        0x0800365f     0x76  Code  Lc  fsmc.o [1]
HAL_GPIO_Init           0x08002f89    0x21c  Code  Gb  stm32f4xx_hal_gpio.o [1]
HAL_GPIO_ReadPin        0x080031a5     0x14  Code  Gb  stm32f4xx_hal_gpio.o [1]
HAL_GPIO_WritePin       0x080031b9     0x14  Code  Gb  stm32f4xx_hal_gpio.o [1]
HAL_GetTick             0x08002bcd      0xc  Code  Wk  stm32f4xx_hal.o [1]
HAL_I2C_Init            0x0800160d    0x1da  Code  Gb  stm32f4xx_hal_i2c.o [1]
HAL_I2C_Master_Receive  0x08001951    0x2f8  Code  Gb  stm32f4xx_hal_i2c.o [1]
HAL_I2C_Master_Transmit
                        0x080017e7    0x16a  Code  Gb  stm32f4xx_hal_i2c.o [1]
HAL_I2C_Mem_Read        0x08001ddd    0x3d6  Code  Gb  stm32f4xx_hal_i2c.o [1]
HAL_I2C_Mem_Write       0x08001c6d    0x170  Code  Gb  stm32f4xx_hal_i2c.o [1]
HAL_I2C_MspInit         0x08002917     0x6e  Code  Gb  i2c.o [1]
HAL_IncTick             0x0801d39d     0x18  Code  Wk  stm32f4xx_hal.o [1]
HAL_Init                0x08003399     0x3a  Code  Gb  stm32f4xx_hal.o [1]
HAL_InitTick            0x08003205     0x4c  Code  Wk  stm32f4xx_hal.o [1]
HAL_MspInit             0x0800774d     0x48  Code  Gb  stm32f4xx_hal_msp.o [1]
HAL_NVIC_EnableIRQ      0x08007697      0xe  Code  Gb  stm32f4xx_hal_cortex.o [1]
HAL_NVIC_SetPriority    0x0800766d     0x2a  Code  Gb  stm32f4xx_hal_cortex.o [1]
HAL_NVIC_SetPriorityGrouping
                        0x08007661      0xc  Code  Gb  stm32f4xx_hal_cortex.o [1]
HAL_RCC_ClockConfig     0x0800299d    0x14c  Code  Gb  stm32f4xx_hal_rcc.o [1]
HAL_RCC_GetHCLKFreq     0x08002ae9      0x6  Code  Gb  stm32f4xx_hal_rcc.o [1]
HAL_RCC_GetPCLK1Freq    0x08002aef     0x16  Code  Gb  stm32f4xx_hal_rcc.o [1]
HAL_RCC_GetPCLK2Freq    0x08002b05     0x16  Code  Gb  stm32f4xx_hal_rcc.o [1]
HAL_RCC_OscConfig       0x08007105    0x40c  Code  Wk  stm32f4xx_hal_rcc.o [1]
HAL_SPI_Init            0x08007815     0x8e  Code  Gb  stm32f4xx_hal_spi.o [1]
HAL_SPI_MspInit         0x08003757     0x6e  Code  Gb  spi.o [1]
HAL_SPI_TransmitReceive
                        0x080078a3    0x2bc  Code  Gb  stm32f4xx_hal_spi.o [1]
HAL_SRAM_Init           0x080077b9     0x5c  Code  Gb  stm32f4xx_hal_sram.o [1]
HAL_SRAM_MspInit        0x080036d5      0xa  Code  Gb  fsmc.o [1]
HAL_SYSTICK_Config      0x080076a5      0xc  Code  Gb  stm32f4xx_hal_cortex.o [1]
HAL_SYSTICK_IRQHandler  0x080076d1      0x8  Code  Gb  stm32f4xx_hal_cortex.o [1]
HAL_UART_IRQHandler     0x08003d67    0x150  Code  Gb  stm32f4xx_hal_uart.o [1]
HAL_UART_Init           0x08003b49     0x76  Code  Gb  stm32f4xx_hal_uart.o [1]
HAL_UART_MspInit        0x0800392f    0x1cc  Code  Gb  usart.o [1]
HAL_UART_Receive_IT     0x08003cf7     0x70  Code  Gb  stm32f4xx_hal_uart.o [1]
HAL_UART_RxCpltCallback
                        0x08002c67     0x3e  Code  Gb  main.o [1]
HAL_UART_Transmit       0x08003bbf     0xe0  Code  Gb  stm32f4xx_hal_uart.o [1]
HAL_UART_Transmit_IT    0x08003c9f     0x58  Code  Gb  stm32f4xx_hal_uart.o [1]
HardFault_Handler       0x0801d343      0x2  Code  Gb  stm32f4xx_it.o [1]
HasPushed.9865          0x20014644      0x4  Data  Lc  GUIDRV_FlexColor.o [3]
I2C_IsAcknowledgeFailed
                        0x08002895     0x38  Code  Lc  stm32f4xx_hal_i2c.o [1]
I2C_MasterRequestRead   0x0800228d    0x144  Code  Lc  stm32f4xx_hal_i2c.o [1]
I2C_MasterRequestWrite  0x080021c1     0xc8  Code  Lc  stm32f4xx_hal_i2c.o [1]
I2C_RequestMemoryRead   0x080024bb    0x16a  Code  Lc  stm32f4xx_hal_i2c.o [1]
I2C_RequestMemoryWrite  0x080023d1     0xea  Code  Lc  stm32f4xx_hal_i2c.o [1]
I2C_WaitOnBTFFlagUntilTimeout
                        0x080027cb     0x58  Code  Lc  stm32f4xx_hal_i2c.o [1]
I2C_WaitOnFlagUntilTimeout
                        0x08002631     0x88  Code  Lc  stm32f4xx_hal_i2c.o [1]
I2C_WaitOnMasterAddressFlagUntilTimeout
                        0x080026b9     0xba  Code  Lc  stm32f4xx_hal_i2c.o [1]
I2C_WaitOnRXNEFlagUntilTimeout
                        0x08002823     0x72  Code  Lc  stm32f4xx_hal_i2c.o [1]
I2C_WaitOnTXEFlagUntilTimeout
                        0x08002773     0x58  Code  Lc  stm32f4xx_hal_i2c.o [1]
ILI93XX_LCD_Init        0x08005851    0x2ac  Code  Gb  ILI93xx.o [1]
IsPressed.9623          0x200145a6      0x1  Data  Lc  GUI_TOUCH_DriverAnalog.o [3]
LCD_AA_MixColors16      0x0801da01     0x48  Code  Gb  LCD_AA.o [3]
LCD_AA_SetAndMask       0x0801b191     0x10  Code  Gb  LCD_AA.o [3]
LCD_AA_pfMixColors16    0x200002fc      0x4  Data  Gb  LCD_AA.o [3]
LCD_API_ColorConv_0     0x0801e3ac     0x18  Data  Gb  GUICC_0.o [3]
LCD_API_ColorConv_8888  0x0801e3c4     0x18  Data  Gb  GUICC_8888.o [3]
LCD_API_ColorConv_M565  0x0801e394     0x18  Data  Gb  GUICC_M565.o [3]
LCD_Clear               0x08005afd     0x84  Code  Gb  ILI93xx.o [1]
LCD_Color2Index         0x0800eb25     0x1c  Code  Gb  LCD.o [3]
LCD_Display_Dir         0x080057a9     0xa8  Code  Gb  ILI93xx.o [1]
LCD_DrawBitmap          0x0800ed19    0x224  Code  Gb  LCD.o [3]
LCD_DrawHLine           0x08018b89     0x50  Code  Gb  LCD.o [3]
LCD_DrawLine            0x08005b81     0xbe  Code  Gb  ILI93xx.o [1]
LCD_DrawPixel           0x0801d281     0x60  Code  Gb  LCD.o [3]
LCD_DrawPoint           0x08005731     0x24  Code  Gb  ILI93xx.o [1]
LCD_DrawVLine           0x08015b2d     0x54  Code  Gb  LCD.o [3]
LCD_Draw_Circle         0x08005c3f     0xba  Code  Gb  ILI93xx.o [1]
LCD_Fast_DrawPoint      0x08005755     0x54  Code  Gb  ILI93xx.o [1]
LCD_FillRect            0x0800ba79     0x58  Code  Gb  LCD.o [3]
LCD_GetBitsPerPixelEx   0x0800c78b      0x6  Code  Gb  LCD_GetEx.o [3]
LCD_GetBkColorIndex     0x0801bbc9     0x10  Code  Gb  LCD_GetColorIndex.o [3]
LCD_GetColorIndex       0x08018f7d     0x10  Code  Gb  LCD_GetColorIndex.o [3]
LCD_GetNumColors        0x0801d7b9     0x10  Code  Gb  LCD_GetEx.o [3]
LCD_GetNumColorsEx      0x0800c791      0x6  Code  Gb  LCD_GetEx.o [3]
LCD_GetNumLayers        0x0800c76d     0x1e  Code  Gb  LCD_GetNumDisplays.o [3]
LCD_GetPalette          0x0801d7c9     0x10  Code  Gb  LCD_GetEx.o [3]
LCD_GetPaletteEx        0x0801d823     0x16  Code  Gb  LCD_GetEx.o [3]
LCD_GetPosEx            0x08017b89     0x32  Code  Gb  LCD_Set.o [3]
LCD_GetVXSizeEx         0x0800fd93      0x6  Code  Gb  LCD_GetEx.o [3]
LCD_GetVXSizeMax        0x0801a695      0x6  Code  Gb  LCD_GetEx.o [3]
LCD_GetVYSizeEx         0x0800fd99      0x6  Code  Gb  LCD_GetEx.o [3]
LCD_GetXSize            0x0801b171     0x10  Code  Gb  LCD_GetEx.o [3]
LCD_GetXSizeDisplay     0x0800a079      0xc  Code  Gb  LCD_GetEx.o [3]
LCD_GetXSizeEx          0x0800d749      0x6  Code  Gb  LCD_GetEx.o [3]
LCD_GetXSizeMax         0x0800a091      0x6  Code  Gb  LCD_GetEx.o [3]
LCD_GetYSize            0x0801b181     0x10  Code  Gb  LCD_GetEx.o [3]
LCD_GetYSizeDisplay     0x0800a085      0xc  Code  Gb  LCD_GetEx.o [3]
LCD_GetYSizeEx          0x0800d74f      0x6  Code  Gb  LCD_GetEx.o [3]
LCD_GetYSizeMax         0x0800a097      0x6  Code  Gb  LCD_GetEx.o [3]
LCD_GetpPalConvTableBM  0x0801e949      0x4  Code  Gb  LCD_Color.o [3]
LCD_GetpPalConvTableUncached
                        0x0801cfa9     0x6c  Code  Gb  LCD_Color.o [3]
LCD_Index2Color         0x0800c799     0x1c  Code  Gb  LCD.o [3]
LCD_Index2Color_888     0x0800b363      0x2  Code  Gb  GUICC_888_Index2Color.o [3]
LCD_Index2Color_8888    0x0800b5ab      0x2  Code  Gb  GUICC_8888_Index2Color.o [3]
LCD_Index2Color_M565    0x0801e055     0x28  Code  Gb  GUICC_M565.o [3]
LCD_InitColors          0x0800b951     0x3c  Code  Gb  LCD_Color.o [3]
LCD_InitLUT             0x0800b9ad     0x88  Code  Gb  LCD_Color.o [3]
LCD_Pow                 0x08005e59     0x16  Code  Gb  ILI93xx.o [1]
LCD_ReadRectEx          0x0801a69d    0x1a4  Code  Lc  LCD_ReadRect.o [3]
LCD_Scan_Dir            0x080055b5    0x17c  Code  Gb  ILI93xx.o [1]
LCD_SelectLCD           0x0800da75     0x40  Code  Gb  LCD_SelectLCD.o [3]
LCD_SetBkColor          0x0800b91d      0xc  Code  Gb  LCD.o [3]
LCD_SetBkColorIndex     0x0800eb59     0x18  Code  Gb  LCD.o [3]
LCD_SetClipRectEx       0x0800fc05     0x30  Code  Gb  LCD_SetClipRectEx.o [3]
LCD_SetClipRectMax      0x0800b935     0x1c  Code  Gb  LCD.o [3]
LCD_SetColor            0x0800b929      0xc  Code  Gb  LCD.o [3]
LCD_SetColorIndex       0x0800eb41     0x18  Code  Gb  LCD.o [3]
LCD_SetCursor           0x08005575     0x40  Code  Gb  ILI93xx.o [1]
LCD_SetDisplaySize      0x0800a09d      0xc  Code  Gb  LCD_GetEx.o [3]
LCD_SetDrawMode         0x0800ba6d      0xc  Code  Gb  LCD.o [3]
LCD_SetLUTEntryEx       0x0800c7b5     0x30  Code  Gb  LCD_Set.o [3]
LCD_SetPosEx            0x08017ce5     0x30  Code  Gb  LCD_Set.o [3]
LCD_SetSizeEx           0x0800c5e1     0x30  Code  Gb  LCD_Set.o [3]
LCD_SetVSizeEx          0x0800c611     0x30  Code  Gb  LCD_Set.o [3]
LCD_SetVisEx            0x0800e36d     0x2c  Code  Gb  LCD_Set.o [3]
LCD_ShowChar            0x08005cf9    0x138  Code  Gb  ILI93xx.o [1]
LCD_ShowNum             0x08005e6f     0xbe  Code  Gb  ILI93xx.o [1]
LCD_ShowString          0x08005f2d     0x72  Code  Gb  ILI93xx.o [1]
LCD_UpdateColorIndices  0x0800dab5     0x24  Code  Gb  LCD_UpdateColorIndices.o [3]
LCD_WR_DATA             0x08005549     0x10  Code  Gb  ILI93xx.o [1]
LCD_WR_REG              0x08005539     0x10  Code  Gb  ILI93xx.o [1]
LCD_WriteRAM_Prepare    0x08005567      0xe  Code  Gb  ILI93xx.o [1]
LCD_WriteReg            0x08005559      0xe  Code  Gb  ILI93xx.o [1]
LCD_X_Config            0x0800b829     0x94  Code  Gb  LCDConf_FlexColor_Template.o [1]
LCD_X_DisplayDriver     0x0800b8e5     0x10  Code  Gb  LCDConf_FlexColor_Template.o [1]
LCD__DrawBitmap_1bpp    0x08010cd1    0x1d8  Code  Gb  LCD.o [3]
LCD__GetBPP             0x08010b3d     0x7e  Code  Gb  LCD_GetEx.o [3]
LCD__GetBPPDevice       0x0801032d     0x2c  Code  Gb  LCD_GetEx.o [3]
LCD__pSetColorAPI       0x200001b4      0x4  Data  Gb  LCD.o [3]
LCD_aMirror             0x0801b632    0x100  Data  Gb  LCD_Mirror.o [3]
LcdReadDataMultiple     0x0800b815     0x14  Code  Lc  LCDConf_FlexColor_Template.o [1]
LcdWriteData            0x0800b7fb      0x6  Code  Lc  LCDConf_FlexColor_Template.o [1]
LcdWriteDataMultiple    0x0800b801     0x14  Code  Lc  LCDConf_FlexColor_Template.o [1]
LcdWriteReg             0x0800b7f5      0x6  Code  Lc  LCDConf_FlexColor_Template.o [1]
LoadInt                 0x0800888f     0x7a  Code  Lc  xprintffull.o [4]
MX_CRC_Init             0x080033d9     0x18  Code  Gb  crc.o [1]
MX_FSMC_Init            0x080035bd     0xa2  Code  Gb  fsmc.o [1]
MX_GPIO_Init            0x08003429     0xda  Code  Gb  gpio.o [1]
MX_I2C1_Init            0x080028cd     0x4a  Code  Gb  i2c.o [1]
MX_SPI1_Init            0x080036f9     0x5e  Code  Gb  spi.o [1]
MX_UART4_Init           0x080037f9     0x58  Code  Gb  usart.o [1]
MX_USART1_UART_Init     0x08003851     0x56  Code  Gb  usart.o [1]
MX_USART2_UART_Init     0x080038a7     0x44  Code  Gb  usart.o [1]
MX_USART3_UART_Init     0x080038eb     0x44  Code  Gb  usart.o [1]
Mask.9608               0x200145a4      0x1  Data  Lc  GUI_TOUCH_DriverAnalog.o [3]
MemManage_Handler       0x0801d345      0x2  Code  Gb  stm32f4xx_it.o [1]
NMI_Handler             0x0801d341      0x2  Code  Gb  stm32f4xx_it.o [1]
NVIC_EncodePriority     0x080075ef     0x42  Code  Lc  stm32f4xx_hal_cortex.o [1]
POINT_COLOR             0x20014968      0x2  Data  Gb  ILI93xx.o [1]
PendSV_Handler          0x0800a62d           Code  Gb  portasm.o [1]
ReadState.9622          0x200145a5      0x1  Data  Lc  GUI_TOUCH_DriverAnalog.o [3]
Region$$Table$$Base     0x0801e1a4            --   Gb  - Linker created -
Region$$Table$$Limit    0x0801e1c4            --   Gb  - Linker created -
RegisterExit.10681      0x2001456c      0x8  Data  Lc  WM.o [3]
RegisterExit.8990       0x20014688      0x8  Data  Lc  GUI__ManageCache.o [3]
RegisterExit.8993       0x20014804      0x8  Data  Lc  LCD_Color.o [3]
RegisterExit.9010       0x20014768      0x8  Data  Lc  GUI_Task.o [3]
RegisterExit.9013       0x200145cc      0x8  Data  Lc  GUI_MULTIBUF.o [3]
RegisterExit.9014       0x200143e8      0x8  Data  Lc  GUI_Cursor.o [3]
RegisterExit.9071       0x2001477c      0x8  Data  Lc  GUI_Timer.o [3]
RegisterExit.9077       0x20014634      0x8  Data  Lc  GUI__Alpha.o [3]
RegisterExit.9631       0x200142c0      0x8  Data  Lc  GUI_PID.o [3]
RegisterExit.9684       0x2001414c      0x8  Data  Lc  GUI_Core.o [3]
RegisterExit.9857       0x200145dc      0x8  Data  Lc  WM_Touch.o [3]
SCROLLBAR_AddValue      0x08018251     0x30  Code  Gb  SCROLLBAR.o [3]
SCROLLBAR_Callback      0x08017d4b    0x396  Code  Gb  SCROLLBAR.o [3]
SCROLLBAR_CreateAttached
                        0x080162e1     0x3a  Code  Gb  SCROLLBAR.o [3]
SCROLLBAR_CreateEx      0x08016501     0x20  Code  Gb  SCROLLBAR.o [3]
SCROLLBAR_CreateUser    0x08016521    0x100  Code  Gb  SCROLLBAR.o [3]
SCROLLBAR_Dec           0x08018287      0x8  Code  Gb  SCROLLBAR.o [3]
SCROLLBAR_DrawSkinFlex  0x0801aa01    0x1a4  Code  Gb  SCROLLBAR_SkinFlex.o [3]
SCROLLBAR_GetValue      0x08015c2f     0x28  Code  Gb  SCROLLBAR.o [3]
SCROLLBAR_Inc           0x08018281      0x6  Code  Gb  SCROLLBAR.o [3]
SCROLLBAR_SetValue      0x080181c5     0x58  Code  Gb  SCROLLBAR.o [3]
SCROLLBAR__DefaultProps
                        0x20000228     0x10  Data  Gb  SCROLLBAR.o [3]
SCROLLBAR__DefaultWidth
                        0x20000224      0x2  Data  Gb  SCROLLBAR.o [3]
SCROLLBAR__InvalidatePartner
                        0x08016631     0x1c  Code  Gb  SCROLLBAR.o [3]
SCROLLBAR__Rect2VRect   0x0801b391     0x34  Code  Gb  SCROLLBAR.o [3]
SCROLLBAR__Skin         0x200002e8      0xc  Data  Gb  SCROLLBAR_Skin.o [3]
SCROLLBAR__ThumbSizeMin
                        0x2000023c      0x2  Data  Gb  SCROLLBAR.o [3]
SCROLLBAR__pSkinDefault
                        0x20000238      0x4  Data  Gb  SCROLLBAR.o [3]
SPI1_ReadWriteByte      0x080037c5     0x1c  Code  Gb  spi.o [1]
SPI_EndRxTxTransaction  0x08007c01     0x5e  Code  Lc  stm32f4xx_hal_spi.o [1]
SPI_WaitFlagStateUntilTimeout
                        0x08007b5f     0xa2  Code  Lc  stm32f4xx_hal_spi.o [1]
SVC_Handler             0x0800a685           Code  Gb  portasm.o [1]
Set_DS3231_Time         0x08004f9d     0xb2  Code  Gb  ds3231.o [1]
SysTick_Config          0x08007631     0x30  Code  Lc  stm32f4xx_hal_cortex.o [1]
SysTick_Handler         0x0801d34d     0x18  Code  Gb  stm32f4xx_it.o [1]
SystemClock_Config      0x08002da9     0xaa  Code  Gb  main.o [1]
SystemCoreClock         0x20000008      0x4  Data  Gb  system_stm32f4xx.o [1]
SystemInit              0x0801e205     0x16  Code  Gb  system_stm32f4xx.o [1]
TP_Adj_Info_Show        0x080064eb    0x1ce  Code  Gb  touch.o [1]
TP_Adjust               0x080066e9    0x778  Code  Gb  touch.o [1]
TP_Drow_Touch_Point     0x08006263     0x7e  Code  Gb  touch.o [1]
TP_Get_Adjdata          0x08006465     0x86  Code  Gb  touch.o [1]
TP_Init                 0x08006e65     0x32  Code  Gb  touch.o [1]
TP_REMIND_MSG_TBL       0x0801cb60     0x78  Data  Gb  touch.o [1]
TP_Read_AD              0x08006037     0x94  Code  Gb  touch.o [1]
TP_Read_XOY             0x080060cb     0xa8  Code  Gb  touch.o [1]
TP_Read_XY              0x08006173     0x26  Code  Gb  touch.o [1]
TP_Read_XY2             0x08006199     0xca  Code  Gb  touch.o [1]
TP_Save_Adjdata         0x080063e7     0x7e  Code  Gb  touch.o [1]
TP_Scan                 0x080062e1    0x106  Code  Gb  touch.o [1]
TP_Write_Byte           0x08005ff5     0x42  Code  Gb  touch.o [1]
Task0_Task              0x08002d6d     0x10  Code  Gb  main.o [1]
Task1_Task              0x08002d7d     0x2c  Code  Gb  main.o [1]
Task2_Task              0x08002ca5     0xc6  Code  Gb  main.o [1]
Touch_GPIO_Init         0x08003503     0x5c  Code  Gb  gpio.o [1]
UART4_IRQHandler        0x0801d383      0xa  Code  Gb  stm32f4xx_it.o [1]
UART_DMAAbortOnError    0x08003f49     0x16  Code  Lc  stm32f4xx_hal_uart.o [1]
UART_EndRxTransfer      0x08003f25     0x20  Code  Lc  stm32f4xx_hal_uart.o [1]
UART_EndTransmit_IT     0x08003fcf     0x20  Code  Lc  stm32f4xx_hal_uart.o [1]
UART_Receive_IT         0x08003fef     0xae  Code  Lc  stm32f4xx_hal_uart.o [1]
UART_SetConfig          0x0800409d    0x322  Code  Lc  stm32f4xx_hal_uart.o [1]
UART_Transmit_IT        0x08003f61     0x6e  Code  Lc  stm32f4xx_hal_uart.o [1]
UART_WaitOnFlagUntilTimeout
                        0x08003eb7     0x6e  Code  Lc  stm32f4xx_hal_uart.o [1]
USART1_IRQHandler       0x0801d365      0xa  Code  Gb  stm32f4xx_it.o [1]
USART2_IRQHandler       0x0801d36f      0xa  Code  Gb  stm32f4xx_it.o [1]
USART3_IRQHandler       0x0801d379      0xa  Code  Gb  stm32f4xx_it.o [1]
UsageFault_Handler      0x0801d349      0x2  Code  Gb  stm32f4xx_it.o [1]
W25QXX_BUFFER           0x20012fec   0x1000  Data  Gb  w25qxx.o [1]
W25QXX_Erase_Sector     0x0800998f     0x4e  Code  Gb  w25qxx.o [1]
W25QXX_Read             0x08009793     0x54  Code  Gb  w25qxx.o [1]
W25QXX_ReadSR           0x0800975d     0x20  Code  Gb  w25qxx.o [1]
W25QXX_Wait_Busy        0x080099dd      0xc  Code  Gb  w25qxx.o [1]
W25QXX_Write            0x08009899     0xf6  Code  Gb  w25qxx.o [1]
W25QXX_Write_Enable     0x0800977d     0x16  Code  Gb  w25qxx.o [1]
W25QXX_Write_NoCheck    0x08009841     0x58  Code  Gb  w25qxx.o [1]
W25QXX_Write_Page       0x080097e7     0x5a  Code  Gb  w25qxx.o [1]
WIDGET_AndState         0x0801821d     0x34  Code  Gb  WIDGET.o [3]
WIDGET_Effect_Simple    0x0801e2bc     0x1c  Data  Gb  WIDGET_Effect_Simple.o [3]
WIDGET_HandleActive     0x080152e7    0x14a  Code  Gb  WIDGET.o [3]
WIDGET_OrState          0x0800c0e7     0x34  Code  Gb  WIDGET.o [3]
WIDGET_SetState         0x0801590d     0x2e  Code  Gb  WIDGET.o [3]
WIDGET__DrawTriangle    0x0801abd5     0x3c  Code  Gb  WIDGET.o [3]
WIDGET__EFFECT_DrawDownRect
                        0x08015519     0x38  Code  Gb  WIDGET.o [3]
WIDGET__GetClientRect   0x0801c20b     0x34  Code  Gb  WIDGET.o [3]
WIDGET__GetInsideRect   0x0801593b     0x1a  Code  Gb  WIDGET.o [3]
WIDGET__Init            0x08016621     0x10  Code  Gb  WIDGET.o [3]
WIDGET__RotateRect90    0x080159eb     0x28  Code  Gb  WIDGET.o [3]
WIDGET__SetScrollState  0x080159ab     0x26  Code  Gb  WIDGET.o [3]
WM_Activate             0x0800bcbd     0x10  Code  Gb  WM.o [3]
WM_BringToBottom        0x0800c905     0x90  Code  Gb  WM_Lib.o [3]
WM_BringToTop           0x0801588d     0x80  Code  Gb  WM_BringToTop.o [3]
WM_CheckScrollBounds    0x0801598d     0x1e  Code  Gb  WM_Lib.o [3]
WM_CreateTimer          0x0801811d     0x68  Code  Gb  WM_Timer.o [3]
WM_CreateWindowAsChild  0x0800baf5    0x168  Code  Gb  WM.o [3]
WM_Deactivate           0x08010261     0x20  Code  Gb  WM.o [3]
WM_DefaultProc          0x0800a367     0x48  Code  Gb  WM.o [3]
WM_DeleteTimer          0x0800e81b     0x30  Code  Gb  WM_Timer.o [3]
WM_DeleteWindow         0x0800c14d    0x124  Code  Gb  WM.o [3]
WM_DisableMemdev        0x0801b60d     0x26  Code  Gb  WM_MemDev.o [3]
WM_Exec                 0x0800d3b9     0x88  Code  Gb  WM.o [3]
WM_ForEachDesc          0x08015c57     0x1e  Code  Gb  WM_Lib.o [3]
WM_GetActiveWindow      0x0800f329      0xc  Code  Gb  WM.o [3]
WM_GetClientRect        0x080154ed     0x2c  Code  Gb  WM_Lib.o [3]
WM_GetClientRectEx      0x080159d1     0x1a  Code  Gb  WM_Lib.o [3]
WM_GetClientWindow      0x0800c0cd     0x1a  Code  Gb  WM_Lib.o [3]
WM_GetDesktopWindow     0x0800a3b9     0x18  Code  Gb  WM_Lib.o [3]
WM_GetDesktopWindowEx   0x08017bdd     0x14  Code  Gb  WM_Lib.o [3]
WM_GetDialogItem        0x08015a73     0x4c  Code  Gb  WM_Lib.o [3]
WM_GetFirstChild        0x0800cf09     0x1a  Code  Gb  WM_Lib.o [3]
WM_GetFlags             0x08015afb     0x1a  Code  Gb  WM_Lib.o [3]
WM_GetFocusedWindow     0x0800c28d     0x20  Code  Gb  WM_Lib.o [3]
WM_GetId                0x0800a347     0x20  Code  Gb  WM_Lib.o [3]
WM_GetInsideRectEx      0x08015ae5     0x16  Code  Gb  WM_Lib.o [3]
WM_GetInsideRectExScrollbar
                        0x08015571     0xac  Code  Gb  WM_Lib.o [3]
WM_GetNextSibling       0x0800d049     0x1a  Code  Gb  WM_Lib.o [3]
WM_GetOrgX              0x08015765     0x10  Code  Gb  WM_Lib.o [3]
WM_GetOrgY              0x08015775     0x10  Code  Gb  WM_Lib.o [3]
WM_GetParent            0x0800d0b9     0x1a  Code  Gb  WM_Lib.o [3]
WM_GetScrollPartner     0x0801664d     0x2a  Code  Gb  WM_Lib.o [3]
WM_GetScrollbarH        0x08015837     0x1c  Code  Gb  WM_Lib.o [3]
WM_GetScrollbarV        0x0801581b     0x1c  Code  Gb  WM_Lib.o [3]
WM_GetWindowOrgX        0x08015b81     0x1c  Code  Gb  WM_Lib.o [3]
WM_GetWindowOrgY        0x08015b9d     0x1c  Code  Gb  WM_Lib.o [3]
WM_GetWindowRectEx      0x08015abf     0x26  Code  Gb  WM_Lib.o [3]
WM_GetWindowSizeX       0x0801b831     0x38  Code  Gb  WM_GetWindowSize.o [3]
WM_GetWindowSizeY       0x0800e4d1     0x38  Code  Gb  WM_GetWindowSize.o [3]
WM_HandlePID            0x080175b1    0x3a0  Code  Gb  WM_Touch.o [3]
WM_HasCaptured          0x08019971     0x1c  Code  Gb  WM_Lib.o [3]
WM_HasFocus             0x080198f1     0x1c  Code  Gb  WM_Lib.o [3]
WM_HideWindow           0x0801631b     0x38  Code  Gb  WM_Hide.o [3]
WM_Init                 0x0800a0e9     0xf0  Code  Gb  WM.o [3]
WM_InvalidateRect       0x0800c9ab     0x82  Code  Gb  WM.o [3]
WM_InvalidateWindow     0x0800bc5d      0x6  Code  Gb  WM.o [3]
WM_InvalidateWindowAndDescs
                        0x0800d0d3     0x34  Code  Gb  WM_Lib.o [3]
WM_InvalidateWindowAndDescsEx
                        0x0800f739     0x64  Code  Gb  WM.o [3]
WM_IsFocusable          0x0800d2d3     0x3c  Code  Gb  WM_Lib.o [3]
WM_IsWindow             0x0800e905     0x18  Code  Gb  WM_Lib.o [3]
WM_MULTIBUF_Enable      0x08007079     0x20  Code  Gb  WM_MULTIBUF.o [3]
WM_MULTIBUF__pAPI       0x20014930      0x4  Data  Wk  WM.o [3]
WM_MoveChildTo          0x0800ce53     0x60  Code  Gb  WM_Lib.o [3]
WM_MoveWindow           0x0800d02b     0x1e  Code  Gb  WM_Move.o [3]
WM_NotifyParent         0x0800d1f1     0x14  Code  Gb  WM_Lib.o [3]
WM_OnKey                0x0800f9d9     0x44  Code  Gb  WM_Lib.o [3]
WM_PID__SetPrevState    0x08017b49     0x14  Code  Gb  WM_PID__GetPrevState.o [3]
WM_ReleaseCapture       0x08017b37     0x12  Code  Gb  WM_SetCapture.o [3]
WM_ResizeWindow         0x0800cf23    0x108  Code  Gb  WM_Lib.o [3]
WM_RestartTimer         0x0801828f     0x38  Code  Gb  WM_Timer.o [3]
WM_Screen2hWin          0x08017a45     0x2c  Code  Gb  WM_Screen2Win.o [3]
WM_SelectWindow         0x0800bc75     0x48  Code  Gb  WM.o [3]
WM_SendMessage          0x0800c067     0x1e  Code  Gb  WM.o [3]
WM_SendMessageNoPara    0x0800c271     0x1a  Code  Gb  WM_Lib.o [3]
WM_SendToParent         0x0800c0a7     0x26  Code  Gb  WM_Lib.o [3]
WM_SetCapture           0x08018185     0x40  Code  Gb  WM_SetCapture.o [3]
WM_SetCaptureMove       0x08019855     0x9c  Code  Gb  WM_SetCaptureMove.o [3]
WM_SetDefault           0x0801b1a1     0x14  Code  Gb  WM.o [3]
WM_SetFocus             0x0800d311     0xa8  Code  Gb  WM_Lib.o [3]
WM_SetFocusOnNextChild  0x0800c2c1     0x64  Code  Gb  WM_SetFocusOnNextChild.o [3]
WM_SetFocusOnPrevChild  0x0801bcbb     0x42  Code  Gb  WM_SetFocusOnPrevChild.o [3]
WM_SetHasTrans          0x08018aed     0x48  Code  Gb  WM_SetTrans.o [3]
WM_SetScrollState       0x08015c85     0x18  Code  Gb  WM_Lib.o [3]
WM_SetScrollbarH        0x08015971     0x1c  Code  Gb  WM_SetScrollbar.o [3]
WM_SetScrollbarV        0x08015955     0x1c  Code  Gb  WM_SetScrollbar.o [3]
WM_SetSize              0x0800ceb3     0x56  Code  Gb  WM_Lib.o [3]
WM_SetUserClipRect      0x08015551     0x20  Code  Gb  WM_Lib.o [3]
WM_ShowWindow           0x0800c11b     0x32  Code  Gb  WM_Lib.o [3]
WM_ValidateWindow       0x08018dbd     0x38  Code  Gb  WM_Lib.o [3]
WM__ActivateClipRect    0x0800ecb9     0x48  Code  Gb  WM.o [3]
WM__AddCriticalHandle   0x0800bc65     0x10  Code  Gb  WM__Private.o [3]
WM__CapturePoint        0x2001494c      0x4  Data  Lc  WM_SetCaptureMove.o [3]
WM__CaptureReleaseAuto  0x20014979      0x1  Data  Wk  WM.o [3]
WM__Client2Screen       0x0800db55     0x10  Code  Gb  WM.o [3]
WM__ClipAtParentBorders
                        0x0800dba1     0x58  Code  Gb  WM.o [3]
WM__DeleteAssocTimer    0x0800d151     0x52  Code  Gb  WM_Timer.o [3]
WM__DeleteSecure        0x08016355     0x1c  Code  Gb  WM.o [3]
WM__DetachWindow        0x0800d205     0x2a  Code  Gb  WM.o [3]
WM__ForEachDesc         0x08015e61     0x2a  Code  Gb  WM__Private.o [3]
WM__GetClientRectEx     0x0800c085     0x22  Code  Gb  WM__Private.o [3]
WM__GetClientRectWin    0x0800d0a1     0x18  Code  Gb  WM.o [3]
WM__GetFirstSibling     0x0800eb71     0x12  Code  Gb  WM__Private.o [3]
WM__GetFocusedChild     0x0800d289     0x24  Code  Gb  WM__Private.o [3]
WM__GetLastSibling      0x0801bd1b     0x18  Code  Gb  WM__Private.o [3]
WM__GetNextIVR          0x0800de35    0x184  Code  Gb  WM.o [3]
WM__GetPrevSibling      0x0800dad9     0x26  Code  Gb  WM__Private.o [3]
WM__GetTopLevelLayer    0x0800d129     0x28  Code  Gb  WM.o [3]
WM__GetWindowSizeX      0x0800e4b5      0xe  Code  Gb  WM_GetWindowSize.o [3]
WM__GetWindowSizeY      0x0800e4c3      0xe  Code  Gb  WM_GetWindowSize.o [3]
WM__InitIVRSearch       0x0800dc8d    0x100  Code  Gb  WM.o [3]
WM__InsertWindowIntoList
                        0x0800c859     0xac  Code  Gb  WM.o [3]
WM__InvalidLayerMask    0x20014940      0x4  Data  Wk  WM.o [3]
WM__Invalidate1Abs      0x0800dbf9      0x6  Code  Gb  WM.o [3]
WM__InvalidateDrawAndDescs
                        0x0800db05     0x50  Code  Gb  WM.o [3]
WM__InvalidateParent    0x0800f3a7     0x2a  Code  Gb  WM.o [3]
WM__InvalidateRect      0x0800eb83     0x76  Code  Gb  WM.o [3]
WM__InvalidateRectEx    0x0800daff      0x6  Code  Gb  WM.o [3]
WM__IsAncestor          0x08017c51     0x22  Code  Gb  WM__Private.o [3]
WM__IsAncestorOrSelf    0x0801992b      0xc  Code  Gb  WM__Private.o [3]
WM__IsChild             0x0800e8dd     0x28  Code  Gb  WM__Private.o [3]
WM__IsEnabled           0x08017ad1     0x12  Code  Gb  WM__Private.o [3]
WM__IsInModalArea       0x08017a71     0x60  Code  Gb  WM_Touch.o [3]
WM__IsInWindow          0x08017d15     0x36  Code  Gb  WM_Screen2Win.o [3]
WM__IsWindow            0x0800d109     0x20  Code  Gb  WM.o [3]
WM__ModalLayer          0x20000244      0x4  Data  Gb  WM_Touch.o [3]
WM__MoveWindow          0x0800e593     0xa8  Code  Gb  WM_Move.o [3]
WM__NumInvalidWindows   0x20014970      0x2  Data  Wk  WM.o [3]
WM__Paint               0x0800f491     0xb4  Code  Gb  WM.o [3]
WM__Paint1              0x0801b0dd     0x94  Code  Gb  WM.o [3]
WM__PaintWinAndOverlays
                        0x0800fb8d     0x78  Code  Lc  WM.o [3]
WM__RectIsNZ            0x0800f79d     0x22  Code  Gb  WM.o [3]
WM__ReleaseCapture      0x08017cb5     0x30  Code  Lc  WM_SetCapture.o [3]
WM__RemoveCriticalHandle
                        0x08017b5d     0x2c  Code  Gb  WM__Private.o [3]
WM__RemoveWindowFromList
                        0x0800e87d     0x3c  Code  Gb  WM.o [3]
WM__Screen2Client       0x08015c9d     0x14  Code  Gb  WM__Private.o [3]
WM__SelectTopLevelLayer
                        0x0800ca2d     0x14  Code  Gb  WM.o [3]
WM__SendMessage         0x0800d065     0x3c  Code  Gb  WM__Private.o [3]
WM__SendMessageIfEnabled
                        0x08017b1d     0x1a  Code  Gb  WM__Private.o [3]
WM__SendMessageNoPara   0x0800d261     0x28  Code  Gb  WM__Private.o [3]
WM__SendMsgNoData       0x0800c995     0x16  Code  Gb  WM.o [3]
WM__SendPIDMessage      0x08017c73     0x42  Code  Gb  WM_Touch.o [3]
WM__SendTouchMessage    0x08017ae3     0x3a  Code  Gb  WM_Touch.o [3]
WM__SetScrollbarH       0x08015c7d      0x8  Code  Gb  WM_SetScrollbar.o [3]
WM__SetScrollbarV       0x08015c75      0x8  Code  Gb  WM_SetScrollbar.o [3]
WM__TouchedLayer        0x20014944      0x4  Data  Wk  WM.o [3]
WM__TransWindowCnt      0x20014924      0x4  Data  Wk  WM.o [3]
WM__UpdateChildPositions
                        0x0800e691     0xec  Code  Gb  WM__Private.o [3]
WM__aCHWinLast          0x200147c4     0x10  Data  Wk  WM_Touch.o [3]
WM__aCHWinModal         0x200147b4     0x10  Data  Wk  WM_Touch.o [3]
WM__aCHWinMouseOver     0x200147d4     0x10  Data  Wk  WM_Touch.o [3]
WM__ahCapture           0x20014838      0x8  Data  Wk  WM.o [3]
WM__ahDesktopWin        0x20014840      0x8  Data  Wk  WM.o [3]
WM__ahWinFocus          0x20014830      0x8  Data  Wk  WM.o [3]
WM__hATransWindow       0x20014928      0x4  Data  Wk  WM.o [3]
WM__hCreateStatic       0x2001493c      0x4  Data  Wk  WM.o [3]
WM__pFirstCriticalHandle
                        0x20014920      0x4  Data  Wk  WM.o [3]
WM_pfHandlePID          0x20014900      0x4  Data  Wk  GUI_Core.o [3]
_Add                    0x08016401     0x40  Code  Lc  GUI_FillPolygon.o [3]
_AddFreeMemory          0x0800d61d     0xa4  Code  Lc  GUI_Alloc.o [3]
_Alloc                  0x0800e3c5     0xf0  Code  Lc  GUI_Alloc.o [3]
_AndMask                0x20000310      0x4  Data  Lc  LCD_AA.o [3]
_BitmapArrowL           0x08001530     0x14  Data  Lc  GUI_CursorResource.o [3]
_BitmapArrowLI          0x08001510     0x14  Data  Lc  GUI_CursorResource.o [3]
_BitmapArrowM           0x080014b4     0x14  Data  Lc  GUI_CursorResource.o [3]
_BitmapArrowMI          0x08001494     0x14  Data  Lc  GUI_CursorResource.o [3]
_BitmapArrowS           0x08001444     0x14  Data  Lc  GUI_CursorResource.o [3]
_BitmapArrowSI          0x08001424     0x14  Data  Lc  GUI_CursorResource.o [3]
_BitmapCrossL           0x0800130c     0x14  Data  Lc  GUI_CursorResource.o [3]
_BitmapCrossLI          0x080012ec     0x14  Data  Lc  GUI_CursorResource.o [3]
_BitmapCrossM           0x0800124c     0x14  Data  Lc  GUI_CursorResource.o [3]
_BitmapCrossMI          0x0800122c     0x14  Data  Lc  GUI_CursorResource.o [3]
_BitmapCrossS           0x080011e8     0x14  Data  Lc  GUI_CursorResource.o [3]
_BitmapCrossSI          0x080011c8     0x14  Data  Lc  GUI_CursorResource.o [3]
_BitmapHeaderM          0x08001150     0x14  Data  Lc  GUI_CursorResource.o [3]
_BitmapHeaderMI         0x08001130     0x14  Data  Lc  GUI_CursorResource.o [3]
_CalcPositions          0x0801b239    0x158  Code  Lc  SCROLLBAR_Skin.o [3]
_CalcSizeOfChar         0x0801e94d      0x4  Code  Lc  GUI_UC_EncodeNone.o [3]
_ClipContext            0x20014554     0x18  Data  Lc  WM.o [3]
_CoefficientsValid      0x200145fc      0x4  Data  Lc  GUI_TOUCH_Calibrate.o [3]
_Color2IndexBulk        0x0801d491     0x5c  Code  Lc  GUICC_M565.o [3]
_Color2IndexBulk        0x0801e5e9     0x10  Code  Lc  GUICC_8888.o [3]
_Color2Index_0          0x0801d765     0x52  Code  Lc  GUICC_0.o [3]
_Color2Index_8888       0x0800baf3      0x2  Code  Lc  GUICC_8888.o [3]
_Color2Index_M565       0x0801e07d     0x28  Code  Lc  GUICC_M565.o [3]
_ColorsHourGlassM       0x080002d8     0x1c  Data  Lc  GUI_CursorResource.o [3]
_Config                 0x200147f4      0xc  Data  Lc  GUI_Alloc.o [3]
_Convert16              0x08010c4f     0x3e  Code  Lc  GUIDEV_WriteToActiveOpaque.o [3]
_Convert8               0x08010c8d     0x42  Code  Lc  GUIDEV_WriteToActiveOpaque.o [3]
_Create                 0x0801de41     0x36  Code  Lc  BUTTON_Skin.o [3]
_Create                 0x0801df7d     0x2c  Code  Lc  FRAMEWIN_Skin.o [3]
_Create                 0x0801dd99     0x38  Code  Lc  SCROLLBAR_Skin.o [3]
_CreateBuffer           0x0800f119     0xaa  Code  Lc  GUI_SPRITE.o [3]
_CreateStaticDevice     0x0801af55    0x164  Code  Lc  GUIDEV_StaticDevices.o [3]
_CurrentTaskNo          0x2000011c      0x4  Data  Lc  GUI_Task.o [3]
_CursorPal              0x080015f4      0xc  Data  Lc  GUI_CursorResource.o [3]
_CursorPalI             0x080015dc      0xc  Data  Lc  GUI_CursorResource.o [3]
_DeleteTimer            0x080180e1     0x24  Code  Lc  SCROLLBAR.o [3]
_DeleteWindows          0x2001454c      0x4  Data  Lc  WM.o [3]
_DispLine               0x080191a5     0x9c  Code  Lc  GUI_CharLine.o [3]
_DoColorConversion.isra.3
                        0x0800e0dd     0x8c  Code  Lc  GUI_SPRITE.o [3]
_DrawBackgroundH        0x0801d4ed     0x5c  Code  Lc  SCROLLBAR_SkinFlex.o [3]
_DrawBackgroundV        0x0801d549     0x5c  Code  Lc  SCROLLBAR_SkinFlex.o [3]
_DrawBitmap             0x08009c0b      0xe  Code  Lc  GUIDRV_FlexColor.o [3]
_DrawBitmap             0x080148c1    0x534  Code  Lc  GUIDRV_FlexColor_16bpp_C0B16.o [3]
_DrawBitmap             0x08012c95    0x740  Code  Lc  GUIDEV_16.o [3]
_DrawBitmap             0x08016fb1    0x3e4  Code  Lc  GUI_SPRITE.o [3]
_DrawBitmap             0x08013b79    0x718  Code  Lc  GUIDEV_32.o [3]
_DrawDown               0x0801e539     0x14  Code  Lc  WIDGET_Effect_Simple.o [3]
_DrawDownRect           0x0801ddd1     0x38  Code  Lc  WIDGET_Effect_Simple.o [3]
_DrawFrame              0x0801b869     0xf4  Code  Lc  SCROLLBAR_SkinFlex.o [3]
_DrawGradient           0x08018bd9    0x194  Code  Lc  GUI_DrawGradient.o [3]
_DrawGraspH             0x0801d5a5     0x5c  Code  Lc  SCROLLBAR_SkinFlex.o [3]
_DrawGraspV             0x0801d601     0x5c  Code  Lc  SCROLLBAR_SkinFlex.o [3]
_DrawHLine              0x0801e5f9     0x10  Code  Lc  GUIDRV_FlexColor.o [3]
_DrawHLine              0x0801e679      0xe  Code  Lc  GUIDEV_16.o [3]
_DrawHLine              0x0801a055    0x1d8  Code  Lc  GUI_SPRITE.o [3]
_DrawHLine              0x0801e687      0xe  Code  Lc  GUIDEV_32.o [3]
_DrawUp                 0x0801e951      0x4  Code  Lc  WIDGET_Effect_Simple.o [3]
_DrawUpRect             0x0801e955      0x4  Code  Lc  WIDGET_Effect_Simple.o [3]
_DrawVLine              0x08009b83     0x12  Code  Lc  GUIDRV_FlexColor.o [3]
_DrawVLine              0x0801c099     0xbc  Code  Lc  GUIDEV_16.o [3]
_DrawVLine              0x0801a841    0x1c0  Code  Lc  GUI_SPRITE.o [3]
_DrawVLine              0x0801c241     0xb4  Code  Lc  GUIDEV_32.o [3]
_EffectRequiresRedraw   0x08015a13     0x60  Code  Lc  WIDGET.o [3]
_Encode                 0x0800b0a3      0x6  Code  Lc  GUI_UC_EncodeNone.o [3]
_Encoding_8859_1_Mbrlen
                        0x08009645      0x2  Code  Gb  xencoding_8859_1.o [4]
_Encoding_8859_1_Wctomb
                        0x08009633     0x12  Code  Gb  xencoding_8859_1.o [4]
_EnlargeBlocks          0x0800ea4d     0x9c  Code  Lc  GUI_Alloc.o [3]
_EntranceCnt.9896       0x20014950      0x4  Data  Lc  WM__Private.o [3]
_Exec1Draw              0x0800e9a9     0x94  Code  Lc  WM.o [3]
_Exec1Input             0x0800e91d     0x8c  Code  Lc  WM.o [3]
_FillByte               0x200003e8      0x1  Data  Lc  GUIDEV_StaticDevices.o [3]
_FillRect               0x0801e609     0x10  Code  Lc  GUIDRV_FlexColor.o [3]
_FillRect               0x0801b95d     0xf0  Code  Lc  GUIDRV_FlexColor_16bpp_C0B16.o [3]
_FillRect               0x0801c2f5     0xb4  Code  Lc  GUIDEV_16.o [3]
_FillRect               0x08019e69    0x1ec  Code  Lc  GUI_SPRITE.o [3]
_FillRect               0x0801c3a9     0xb4  Code  Lc  GUIDEV_32.o [3]
_Findx0                 0x0800efe3     0x86  Code  Lc  WM.o [3]
_Findx1                 0x0800f069     0x72  Code  Lc  WM.o [3]
_Findy1                 0x0800ef3d     0xa6  Code  Lc  WM.o [3]
_FlushBuffer.isra.5     0x0800f911     0x7a  Code  Lc  GUI_SPRITE.o [3]
_GL_FP_Cnt              0x2001465c      0x4  Data  Lc  GUI_FillPolygon.o [3]
_GUI_USAGE_BM_Delete    0x0801e959      0x4  Code  Lc  GUIDEV_UsageBM.o [3]
_GenldFull              0x08009303    0x27e  Code  Lc  xprintffull.o [4]
_GetArrowPara           0x0801aba5     0x30  Code  Lc  SCROLLBAR_SkinFlex.o [3]
_GetBkIndex.isra.0      0x0800f23d     0x70  Code  Lc  GUI_SPRITE.o [3]
_GetBkIndexAlpha.isra.2
                        0x0800f2ad     0x7a  Code  Lc  GUI_SPRITE.o [3]
_GetBorderSize          0x0801dba3     0x40  Code  Lc  FRAMEWIN_Skin.o [3]
_GetCharCode            0x0801e95d      0x4  Code  Lc  GUI_UC_EncodeNone.o [3]
_GetCharSize            0x0801e961      0x4  Code  Lc  GUI_UC_EncodeNone.o [3]
_GetClipParam           0x08017481    0x130  Code  Lc  GUI_SPRITE.o [3]
_GetClipRect            0x08017395     0xec  Code  Lc  GUI_SPRITE.o [3]
_GetDevData             0x0801e6f9      0xc  Code  Lc  GUIDRV_FlexColor.o [3]
_GetDevData             0x0801e619     0x10  Code  Lc  GUIDEV_16.o [3]
_GetDevData             0x0801e965      0x4  Code  Lc  GUI_SPRITE.o [3]
_GetDevData             0x0801e629     0x10  Code  Lc  GUIDEV_32.o [3]
_GetDevFunc             0x0801cae5     0x7c  Code  Lc  GUIDRV_FlexColor.o [3]
_GetDevFunc             0x0801e639     0x10  Code  Lc  GUIDEV_16.o [3]
_GetDevFunc             0x0801e0a5     0x28  Code  Lc  GUI_SPRITE.o [3]
_GetDevFunc             0x0801e649     0x10  Code  Lc  GUIDEV_32.o [3]
_GetDevFunc_Init        0x0801d925     0x4a  Code  Lc  GUIDRV_FlexColor.o [3]
_GetDevFunc_Off         0x0801e491     0x16  Code  Lc  GUIDRV_FlexColor.o [3]
_GetDevFunc_On          0x0801e4a7     0x16  Code  Lc  GUIDRV_FlexColor.o [3]
_GetDevFunc_SetRect     0x0800bc63      0x2  Code  Lc  GUIDRV_FlexColor.o [3]
_GetDevFunc_SetRectOutside
                        0x0801dbe5     0x40  Code  Lc  GUIDRV_FlexColor.o [3]
_GetDevFunc_SetSize     0x0801e54d     0x14  Code  Lc  GUIDRV_FlexColor.o [3]
_GetDevFunc_SetVSize    0x0801e561     0x14  Code  Lc  GUIDRV_FlexColor.o [3]
_GetDevProp             0x0800333f     0x5a  Code  Lc  GUIDRV_FlexColor.o [3]
_GetDevProp             0x0800c7ff     0x1e  Code  Lc  LCD_GetEx.o [3]
_GetDevProp             0x0801e40d     0x18  Code  Lc  GUIDEV_16.o [3]
_GetDevProp             0x0801e705      0xc  Code  Lc  GUI_SPRITE.o [3]
_GetDevProp             0x08009c47      0xa  Code  Lc  GUIDEV_32.o [3]
_GetDeviceRect          0x0800f0dd     0x3c  Code  Lc  GUI_SPRITE.o [3]
_GetDialogItem          0x08015be9     0x46  Code  Lc  WM_Lib.o [3]
_GetIndexMask_0         0x0801d839     0x52  Code  Lc  GUICC_0.o [3]
_GetIndexMask_8888      0x0800b253      0x6  Code  Lc  GUICC_8888.o [3]
_GetIndexMask_M565      0x0800b27b      0x6  Code  Lc  GUICC_M565.o [3]
_GetMaxValue            0x0800bad1     0x22  Code  Lc  LCD_GetEx.o [3]
_GetNextChild           0x0800d2ad     0x26  Code  Lc  WM_SetFocusOnNextChild.o [3]
_GetPixelIndex          0x0801e169      0x8  Code  Lc  GUIDRV_FlexColor.o [3]
_GetPixelIndex          0x0801e695      0xe  Code  Lc  GUIDEV_16.o [3]
_GetPixelIndex          0x0801d1b9     0x64  Code  Lc  GUI_SPRITE.o [3]
_GetPixelIndex          0x0801e6a3      0xe  Code  Lc  GUIDEV_32.o [3]
_GetPrevChild           0x0801bcfd     0x1e  Code  Lc  WM_SetFocusOnPrevChild.o [3]
_GetRect                0x08009b33     0x16  Code  Lc  GUIDRV_FlexColor.o [3]
_GetRect                0x0801de77     0x36  Code  Lc  GUIDEV_16.o [3]
_GetRect                0x0801e711      0xc  Code  Lc  GUI_SPRITE.o [3]
_GetRect                0x0801dead     0x36  Code  Lc  GUIDEV_32.o [3]
_GetTaskNo              0x0800bcd9     0x3c  Code  Lc  GUI_Task.o [3]
_GetTwinArcPara         0x08018b35     0x54  Code  Lc  GUI__DrawTwinArc.o [3]
_HL_APIList             0x0801e454      0x8  Data  Lc  GUI_Core.o [3]
_Index2ColorBulk        0x0801d21d     0x64  Code  Lc  GUICC_M565.o [3]
_Index2ColorBulk        0x0801e659     0x10  Code  Lc  GUICC_8888.o [3]
_Index2Color_0          0x0801e265     0x1e  Code  Lc  GUICC_0.o [3]
_InitContext            0x08009f51     0x84  Code  Lc  GUI_Core.o [3]
_InitOnce               0x0800d4d9     0x68  Code  Lc  GUI_Alloc.o [3]
_Invalidate1Abs         0x0800ec19     0xa0  Code  Lc  WM.o [3]
_IsInited               0x20014548      0x1  Data  Lc  WM.o [3]
_IsInitialized          0x20014134      0x4  Data  Lc  GUI_Core.o [3]
_IsInitialized          0x200143bc      0x4  Data  Lc  GUI_Cursor.o [3]
_IsInitialized          0x20014630      0x4  Data  Lc  GUI__Alpha.o [3]
_IsInitialized          0x20014778      0x4  Data  Lc  GUI_Timer.o [3]
_Key                    0x200141b8      0x4  Data  Lc  GUI_OnKey.o [3]
_LdtobFull              0x08008ee9    0x3f0  Code  Lc  xprintffull.o [4]
_Link                   0x0800e169     0x1c  Code  Lc  GUI_SPRITE.o [3]
_Link                   0x080183cd     0x90  Code  Lc  GUI_Timer.o [3]
_LitobFull              0x08008d8d    0x116  Code  Lc  xprintffull.o [4]
_Locale_lconv           0x20000314     0x38  Data  Lc  xlocale_c.o [4]
_Log2PhysX_X0Y0S0       0x0801e969      0x4  Code  Lc  GUIDRV_FlexColor.o [3]
_Log2PhysX_X0Y0S1       0x0801e96d      0x4  Code  Lc  GUIDRV_FlexColor.o [3]
_Log2PhysX_X0Y1S0       0x0801e971      0x4  Code  Lc  GUIDRV_FlexColor.o [3]
_Log2PhysX_X0Y1S1       0x0801e975      0x4  Code  Lc  GUIDRV_FlexColor.o [3]
_Log2PhysX_X1Y0S0       0x0801e79d      0x8  Code  Lc  GUIDRV_FlexColor.o [3]
_Log2PhysX_X1Y0S1       0x0801e7a5      0x8  Code  Lc  GUIDRV_FlexColor.o [3]
_Log2PhysX_X1Y1S0       0x0801e7ad      0x8  Code  Lc  GUIDRV_FlexColor.o [3]
_Log2PhysX_X1Y1S1       0x0801e7b5      0x8  Code  Lc  GUIDRV_FlexColor.o [3]
_Log2PhysY_X0Y0S0       0x0801e979      0x4  Code  Lc  GUIDRV_FlexColor.o [3]
_Log2PhysY_X0Y0S1       0x0801e97d      0x4  Code  Lc  GUIDRV_FlexColor.o [3]
_Log2PhysY_X0Y1S0       0x0801e7bd      0x8  Code  Lc  GUIDRV_FlexColor.o [3]
_Log2PhysY_X0Y1S1       0x0801e7c5      0x8  Code  Lc  GUIDRV_FlexColor.o [3]
_Log2PhysY_X1Y0S0       0x0801e981      0x4  Code  Lc  GUIDRV_FlexColor.o [3]
_Log2PhysY_X1Y0S1       0x0801e985      0x4  Code  Lc  GUIDRV_FlexColor.o [3]
_Log2PhysY_X1Y1S0       0x0801e7cd      0x8  Code  Lc  GUIDRV_FlexColor.o [3]
_Log2PhysY_X1Y1S1       0x0801e7d5      0x8  Code  Lc  GUIDRV_FlexColor.o [3]
_Log2VisBuffered        0x0800c28b      0x2  Code  Lc  GUI_CharLine.o [3]
_MULTIBUF_APIList       0x0801e78c      0x8  Data  Gb  WM_MULTIBUF.o [3]
_MULTIBUF_Begin         0x0801dfa9     0x2c  Code  Lc  WM_MULTIBUF.o [3]
_MULTIBUF_End           0x0801dfd5     0x2c  Code  Lc  WM_MULTIBUF.o [3]
_ManageScrollbars       0x08015431     0xba  Code  Lc  GRAPH.o [3]
_MaxTask                0x20000118      0x4  Data  Lc  GUI_Task.o [3]
_MoveDescendents        0x0800f335     0x72  Code  Lc  WM_Move.o [3]
_NextDrawWin            0x20014550      0x4  Data  Lc  WM.o [3]
_NumColors              0x20000240      0x4  Data  Lc  LCD_Color.o [3]
_OnButtonPressed        0x0801bf4b     0x30  Code  Lc  BUTTON.o [3]
_OnButtonReleased       0x0801bf7b     0x40  Code  Lc  BUTTON.o [3]
_OnExit                 0x0801da49     0x48  Code  Lc  GUI_Core.o [3]
_OnExit                 0x0801c6f9     0x9c  Code  Lc  WM.o [3]
_OnExit                 0x0801e425     0x18  Code  Lc  GUI_Cursor.o [3]
_OnExit                 0x0801e575     0x14  Code  Lc  GUI_Task.o [3]
_OnExit                 0x0801e301     0x1c  Code  Lc  LCD_Color.o [3]
_OnExit                 0x0801e0cd     0x28  Code  Lc  GUI__Alpha.o [3]
_OnExit                 0x0801e669     0x10  Code  Lc  GUI_Timer.o [3]
_OnExit                 0x0801e43d     0x18  Code  Lc  GUI_PID.o [3]
_OnScrollValueChanged   0x08015853     0x38  Code  Lc  GRAPH.o [3]
_OnTouchDefault         0x0801dc25     0x40  Code  Lc  BUTTON.o [3]
_OrientationLog         0x20014578      0x4  Data  Lc  GUI_TOUCH_DriverAnalog.o [3]
_Paint                  0x0801ca61     0x84  Code  Lc  BUTTON_Skin.o [3]
_Paint                  0x0801b733     0xfe  Code  Lc  FRAMEWIN_Skin.o [3]
_Paint                  0x0801c155     0xb6  Code  Lc  SCROLLBAR_Skin.o [3]
_Paint1                 0x0800ffd1     0x28  Code  Lc  WM.o [3]
_Paint1Trans            0x080100a9     0x94  Code  Lc  WM.o [3]
_PaintTransChildren     0x0800fff9     0xae  Code  Lc  WM.o [3]
_PalHourGlassM          0x080002cc      0xc  Data  Lc  GUI_CursorResource.o [3]
_PixelExists            0x0801be15     0x44  Code  Lc  GUI_SPRITE.o [3]
_PixelsHeaderM          0x08001164     0x55  Data  Lc  GUI_CursorResource.o [3]
_Pixels_ArrowL          0x08001544     0x96  Data  Lc  GUI_CursorResource.o [3]
_Pixels_ArrowM          0x080014c8     0x3c  Data  Lc  GUI_CursorResource.o [3]
_Pixels_ArrowS          0x08001458     0x2d  Data  Lc  GUI_CursorResource.o [3]
_Pixels_CrossL          0x08001320     0xf8  Data  Lc  GUI_CursorResource.o [3]
_Pixels_CrossM          0x08001260     0x7e  Data  Lc  GUI_CursorResource.o [3]
_Pixels_CrossS          0x080011fc     0x21  Data  Lc  GUI_CursorResource.o [3]
_PrintfFull             0x080086c1    0x1b6  Code  Gb  xprintffull.o [4]
_PropsActive            0x200001b8     0x2c  Data  Lc  FRAMEWIN_SkinFlex.o [3]
_PropsDisabled          0x20000128     0x20  Data  Lc  BUTTON_SkinFlex.o [3]
_PropsEnabled           0x20000148     0x20  Data  Lc  BUTTON_SkinFlex.o [3]
_PropsFocused           0x20000168     0x20  Data  Lc  BUTTON_SkinFlex.o [3]
_PropsInactive          0x200001e4     0x2c  Data  Lc  FRAMEWIN_SkinFlex.o [3]
_PropsPressed           0x20000188     0x20  Data  Lc  BUTTON_SkinFlex.o [3]
_PropsPressed           0x20000290     0x2c  Data  Lc  SCROLLBAR_SkinFlex.o [3]
_PropsUnpressed         0x200002bc     0x2c  Data  Lc  SCROLLBAR_SkinFlex.o [3]
_Prout                  0x0801e46d     0x16  Code  Gb  xprout.o [4]
_PushFreeBlock          0x0800e8b9     0x24  Code  Lc  GUI_Alloc.o [3]
_PutcharsFull           0x08009581     0x2e  Code  Lc  xprintffull.o [4]
_PutfldFull             0x08008909    0x2d0  Code  Lc  xprintffull.o [4]
_PutstrFull             0x08008ccf     0xbe  Code  Lc  xprintffull.o [4]
_PuttxtFull             0x08008bd9     0xf6  Code  Lc  xprintffull.o [4]
_ReadData               0x08009df3      0xa  Code  Lc  GUIDRV_FlexColor_16bpp_C0B16.o [3]
_ReadPixelCust_16bpp    0x0800a3af      0xa  Code  Lc  GUIDRV_FlexColor.o [3]
_ReadPixelCust_18bpp    0x0800af0b      0xa  Code  Lc  GUIDRV_FlexColor.o [3]
_ReadPixel_16bpp_B16_I  0x0801dd5d     0x3c  Code  Lc  GUIDRV_FlexColor_Func66709.o [3]
_ReadPixel_16bpp_B8     0x0801de09     0x38  Code  Lc  GUIDRV_FlexColor_Func66709.o [3]
_ReadRectCust_16bpp     0x08007543     0x3a  Code  Lc  GUIDRV_FlexColor.o [3]
_ReadRectCust_18bpp     0x080076db     0x3a  Code  Lc  GUIDRV_FlexColor.o [3]
_ReadRect_16bpp_B16_I   0x08002f27     0x62  Code  Lc  GUIDRV_FlexColor_Func66709.o [3]
_ReadRect_16bpp_B8      0x0801d2e1     0x60  Code  Lc  GUIDRV_FlexColor_Func66709.o [3]
_ReleaseBuffer.isra.6   0x0800f21f     0x1e  Code  Lc  GUI_SPRITE.o [3]
_RemoveFreeBlock        0x0800d5dd     0x40  Code  Lc  GUI_Alloc.o [3]
_RemoveHoles            0x0800d541     0x9c  Code  Lc  GUI_Alloc.o [3]
_Screen2hWin            0x08017bf1     0x60  Code  Lc  WM_Screen2Win.o [3]
_SetActive              0x08019937     0x38  Code  Lc  FRAMEWIN.o [3]
_SetBkColor             0x0801e225     0x20  Code  Lc  LCD.o [3]
_SetBkIndexBuffered     0x0800f1db     0x44  Code  Lc  GUI_SPRITE.o [3]
_SetClipRectUserIntersect
                        0x0800f7c1     0x50  Code  Lc  WM.o [3]
_SetColor               0x0801e245     0x20  Code  Lc  LCD.o [3]
_SetColorAPI            0x0801e6e0      0xc  Data  Lc  LCD.o [3]
_SetDevFunc             0x0801c795     0x9c  Code  Lc  GUIDRV_FlexColor.o [3]
_SetDrawMode            0x0801e0f5     0x28  Code  Lc  LCD.o [3]
_SetInterface           0x0801df19     0x34  Code  Lc  GUIDRV_FlexColor_Func66709.o [3]
_SetLineColor           0x08016371     0x90  Code  Lc  GUI_DrawLine.o [3]
_SetOrg                 0x0801e4bd     0x16  Code  Lc  GUIDRV_FlexColor.o [3]
_SetOrg                 0x0801e71d      0xc  Code  Lc  GUIDEV_16.o [3]
_SetOrg                 0x0801e729      0xc  Code  Lc  GUI_SPRITE.o [3]
_SetOrg                 0x0801e7dd      0x8  Code  Lc  GUIDEV_32.o [3]
_SetOrientation         0x0801dc65     0x40  Code  Lc  GUIDRV_FlexColor_Func66709.o [3]
_SetPhysRAMAddr         0x0801c50f     0xa6  Code  Lc  GUIDRV_FlexColor_Func66709.o [3]
_SetPixelIndex          0x0801e171     0x10  Code  Lc  GUIDRV_FlexColor.o [3]
_SetPixelIndex          0x0801d88d     0x4c  Code  Lc  GUIDEV_16.o [3]
_SetPixelIndex          0x0801bfcd     0xcc  Code  Lc  GUI_SPRITE.o [3]
_SetPixelIndex          0x0801d8d9     0x4c  Code  Lc  GUIDEV_32.o [3]
_SetRect                0x0801c5b5     0xa6  Code  Lc  GUIDRV_FlexColor_Func66709.o [3]
_SetReg_B16             0x0801e7e5      0x8  Code  Lc  GUIDRV_FlexColor_Func66709.o [3]
_SetReg_B8              0x08009a17     0x1a  Code  Lc  GUIDRV_FlexColor_Func66709.o [3]
_SetScrollbar           0x08015e8b     0x52  Code  Lc  WM_SetScrollbar.o [3]
_Show                   0x0800bde1     0x30  Code  Lc  GUI_Cursor.o [3]
_SkinPrivate            0x2000021c      0x8  Data  Lc  FRAMEWIN_Skin.o [3]
_SpriteDraw             0x0800e185    0x1e8  Code  Lc  GUI_SPRITE.o [3]
_Sprite_API             0x0801dee4     0x34  Data  Lc  GUI_SPRITE.o [3]
_State                  0x2001480c      0xc  Data  Lc  GUI_TOUCH_StoreState.o [3]
_State                  0x200147e4      0xc  Data  Lc  GUI_TOUCH.o [3]
_TaskIDLock             0x20014764      0x4  Data  Lc  GUI_Task.o [3]
_TimeSlice              0x200000e8      0x4  Data  Lc  GUI_Time.o [3]
_Undraw                 0x0800dfb9     0xf0  Code  Lc  GUI_SPRITE.o [3]
_Unlink                 0x0800e0a9     0x1c  Code  Lc  GUI_SPRITE.o [3]
_Unlink                 0x0800f98d     0x4c  Code  Lc  GUI_Timer.o [3]
_UseSingleFrame         0x200145c8      0x4  Data  Lc  GUI_MULTIBUF.o [3]
_VXSizeMax              0x2001462c      0x4  Data  Lc  GUI__Alpha.o [3]
_WriteData              0x0801e7ed      0x8  Code  Lc  GUIDRV_FlexColor_16bpp_C0B16.o [3]
_WritePara_B16          0x0801e7f5      0x8  Code  Lc  GUIDRV_FlexColor_Func66709.o [3]
_WritePara_B8           0x0801e7fd      0x8  Code  Lc  GUIDRV_FlexColor_Func66709.o [3]
_XY2PTR                 0x080133fd     0x40  Code  Lc  GUIDEV_16.o [3]
_XY2PTR                 0x08014291     0x40  Code  Lc  GUIDEV_32.o [3]
_XorPixel               0x0801e145     0x24  Code  Lc  GUIDRV_FlexColor.o [3]
_XorPixel               0x0801d6b9     0x58  Code  Lc  GUIDEV_16.o [3]
_XorPixel               0x0801bd35     0xe0  Code  Lc  GUI_SPRITE.o [3]
_XorPixel               0x0801d65d     0x5c  Code  Lc  GUIDEV_32.o [3]
__NVIC_EnableIRQ        0x080075ab     0x1e  Code  Lc  stm32f4xx_hal_cortex.o [1]
__NVIC_GetPriorityGrouping
                        0x0800759f      0xc  Code  Lc  stm32f4xx_hal_cortex.o [1]
__NVIC_SetPriority      0x080075c9     0x26  Code  Lc  stm32f4xx_hal_cortex.o [1]
__NVIC_SetPriorityGrouping
                        0x0800757d     0x22  Code  Lc  stm32f4xx_hal_cortex.o [1]
__aeabi_cdcmple         0x08009bdd           Code  Gb  DblCmpLe.o [5]
__aeabi_cdrcmple        0x08009c19           Code  Gb  DblCmpGe.o [5]
__aeabi_d2iz            0x08009b49           Code  Gb  DblToS32.o [5]
__aeabi_d2uiz           0x0800b5ad           Code  Gb  DblToU32.o [5]
__aeabi_ddiv            0x0800b365           Code  Gb  DblDiv.o [5]
__aeabi_dmul            0x08009c51           Code  Gb  DblMul.o [5]
__aeabi_dsub            0x0800b281           Code  Gb  DblSub.o [5]
__aeabi_f2d             0x08009b95           Code  Gb  FltToDbl.o [5]
__aeabi_i2d             0x0800b259           Code  Gb  S32ToDbl.o [5]
__aeabi_ldiv0           0x08007715           Code  Gb  I64DivZer.o [6]
__aeabi_memclr4         0x08002f21           Code  Gb  ABImemclr4.o [6]
__aeabi_memcpy          0x0800affd           Code  Gb  ABImemcpy.o [6]
__aeabi_memcpy4         0x0800b01d           Code  Gb  ABImemcpy.o [6]
__aeabi_memcpy8         0x0800b01d           Code  Gb  ABImemcpy.o [6]
__aeabi_memmove         0x0800f64d           Code  Gb  ABImemmove.o [6]
__aeabi_memmove4        0x0800f64d           Code  Gb  ABImemmove.o [6]
__aeabi_memmove8        0x0800f64d           Code  Gb  ABImemmove.o [6]
__aeabi_memset          0x08007f0d           Code  Gb  ABImemset.o [6]
__aeabi_ui2d            0x080099fd           Code  Gb  U32ToDbl.o [5]
__aeabi_uldivmod        0x08003251           Code  Gb  I64DivMod.o [6]
__cmain                 0x0801e31d           Code  Gb  cmain.o [6]
__exit                  0x0800d4c5     0x14  Code  Gb  exit.o [7]
__iar_Fail_s            0x0800af15     0x1e  Code  Gb  xfail_s.o [4]
__iar_Mbcurmax          0x0800afed      0xa  Code  Gb  xmbcurmax.o [4]
__iar_Memchr            0x0800af95           Code  Gb  memchr.o [6]
__iar_Memset            0x08007f0d           Code  Gb  ABImemset.o [6]
__iar_Memset4_word      0x08007511           Code  Gb  ABImemset48.o [6]
__iar_Memset8_word      0x08007511           Code  Gb  ABImemset48.o [6]
__iar_Memset_word       0x08007f15           Code  Gb  ABImemset.o [6]
__iar_Stdout            0x20000394     0x48  Data  Gb  xfiles.o [4]
__iar_Strchr            0x0800aef5           Code  Gb  strchr.o [6]
__iar_dadd              0x0800b291           Code  Gb  DblSub.o [5]
__iar_data_init3        0x0801e11d     0x28  Code  Gb  data_init.o [6]
__iar_dsub              0x0800c381           Code  Gb  DblAdd.o [5]
__iar_dsubStart         0x0800c393           Code  Gb  DblAdd.o [5]
__iar_frexp             0x0800b0b5           Code  Gb  frexp.o [5]
__iar_frexpl            0x0800b0b5           Code  Gb  frexp.o [5]
__iar_globLocale        0x2000034c     0x48  Data  Lc  xlocale_c.o [4]
__iar_global_Locale     0x0800ae81      0x4  Code  Gb  xlocale_c.o [4]
__iar_init_vfp          0x0801e181           Code  Gb  fpinit_M.o [5]
__iar_ldexp64           0x0800b119           Code  Gb  ldexp.o [5]
__iar_lz77_init_single3
                        0x08002ea7     0x7a  Code  Gb  lz77_init_single.o [6]
__iar_program_start     0x0801e6ed           Code  Gb  cstartup_M.o [6]
__iar_scalbln64         0x0800b119           Code  Gb  ldexp.o [5]
__iar_scalbn64          0x0800b119           Code  Gb  ldexp.o [5]
__iar_softfp___iar_frexp64
                        0x0800b0a9           Code  Gb  frexp.o [5]
__iar_softfp_frexp      0x0800b0a9           Code  Gb  frexp.o [5]
__iar_softfp_frexpl     0x0800b0a9           Code  Gb  frexp.o [5]
__iar_sqrt64            0x08009a41           Code  Gb  sqrt.o [5]
__iar_systems$$module {Abs}
                        0x00000001           Data  Gb  command line/config [2]
__iar_vfp___iar_sqrt64  0x08009a31           Code  Gb  sqrt.o [5]
__iar_vfp_sqrt          0x08009a31           Code  Gb  sqrt.o [5]
__iar_vfp_sqrtl         0x08009a31           Code  Gb  sqrt.o [5]
__iar_zero_init3        0x0801dca5     0x40  Code  Gb  zero_init3.o [6]
__low_level_init        0x0801e337      0x4  Code  Gb  low_level_init.o [4]
__vector_table          0x08000000           Data  Gb  startup_stm32f407xx.o [1]
_aCoefficient           0x20014600     0x18  Data  Lc  GUI_TOUCH_Calibrate.o [3]
_aColor                 0x20014960      0x4  Data  Lc  WIDGET_Effect_Simple.o [3]
_aColorCursorPal        0x08001600      0xc  Data  Lc  GUI_CursorResource.o [3]
_aColorCursorPalI       0x080015e8      0xc  Data  Lc  GUI_CursorResource.o [3]
_aCursor                0x200143f0     0x18  Data  Lc  GUI_Cursor.o [3]
_aCursorContext         0x200143c0     0x28  Data  Lc  GUI_Cursor.o [3]
_aCursorLayer           0x20014868      0x8  Data  Lc  GUI_SelectLayer.o [3]
_aDialogCreate          0x0801d710     0x54  Data  Lc  FramewinDLG.o [1]
_aGamma                 0x20000300     0x10  Data  Lc  LCD_AA.o [3]
_aID                    0x0801cd70     0x40  Data  Lc  GUIDEV_16.o [3]
_aLock                  0x200145b8      0x8  Data  Lc  GUI_MULTIBUF.o [3]
_aPend                  0x200145c0      0x8  Data  Lc  GUI_MULTIBUF.o [3]
_aPrevState             0x20014690     0x18  Data  Lc  WM_PID__GetPrevState.o [3]
_aState                 0x200141bc     0x58  Data  Lc  GUI_OnKey.o [3]
_aState                 0x20014270     0x48  Data  Lc  GUI_PID.o [3]
_aStateLast             0x200145e4     0x18  Data  Lc  WM_Touch.o [3]
_aView                  0x200145a8      0x8  Data  Lc  GUI_MULTIBUF.o [3]
_aWork                  0x200145b0      0x8  Data  Lc  GUI_MULTIBUF.o [3]
_aX                     0x20014660     0x18  Data  Lc  GUI_FillPolygon.o [3]
_abmHourGlassM          0x080001a0    0x12c  Data  Lc  GUI_CursorResource.o [3]
_acHourGlassM_00        0x08001030     0xf2  Data  Lc  GUI_CursorResource.o [3]
_acHourGlassM_01        0x08000f3e     0xf2  Data  Lc  GUI_CursorResource.o [3]
_acHourGlassM_02        0x08000e4c     0xf2  Data  Lc  GUI_CursorResource.o [3]
_acHourGlassM_03        0x08000d5a     0xf2  Data  Lc  GUI_CursorResource.o [3]
_acHourGlassM_04        0x08000c68     0xf2  Data  Lc  GUI_CursorResource.o [3]
_acHourGlassM_05        0x08000b76     0xf2  Data  Lc  GUI_CursorResource.o [3]
_acHourGlassM_06        0x08000a84     0xf2  Data  Lc  GUI_CursorResource.o [3]
_acHourGlassM_07        0x08000992     0xf2  Data  Lc  GUI_CursorResource.o [3]
_acHourGlassM_08        0x080008a0     0xf2  Data  Lc  GUI_CursorResource.o [3]
_acHourGlassM_09        0x080007ae     0xf2  Data  Lc  GUI_CursorResource.o [3]
_acHourGlassM_10        0x080006bc     0xf2  Data  Lc  GUI_CursorResource.o [3]
_acHourGlassM_11        0x080005ca     0xf2  Data  Lc  GUI_CursorResource.o [3]
_acHourGlassM_12        0x080004d8     0xf2  Data  Lc  GUI_CursorResource.o [3]
_acHourGlassM_13        0x080003e6     0xf2  Data  Lc  GUI_CursorResource.o [3]
_acHourGlassM_14        0x080002f4     0xf2  Data  Lc  GUI_CursorResource.o [3]
_acSignature            0x20014138     0x14  Data  Lc  GUI_Core.o [3]
_acVersion              0x200003e1      0x7  Data  Lc  GUI_Common.o [3]
_apProps                0x0801e598     0x10  Data  Lc  BUTTON_SkinFlex.o [3]
_apbmHourGlassM         0x20000248     0x3c  Data  Lc  GUI_CursorResource.o [3]
_call_main              0x0801e329           Code  Gb  cmain.o [6]
_cbBackWin              0x0801d151     0x68  Code  Lc  WM.o [3]
_cbDialog               0x08006ff1     0x58  Code  Lc  FramewinDLG.o [1]
_cbInvalidateOne        0x0801e989      0x4  Code  Lc  WM_BringToTop.o [3]
_cbPaintMemDev          0x0801d015     0x6c  Code  Lc  WM.o [3]
_cbTimer                0x0801e001     0x2c  Code  Lc  WM_Timer.o [3]
_exit                   0x0801e341           Code  Gb  cexit.o [6]
_gLocale_mblen          0x0800aee1      0x4  Code  Gb  xlocale_c.o [4]
_gLocale_mblenInt       0x0800aea9     0x34  Code  Gb  xlocale_c.o [4]
_gLocale_wctomb         0x0800aee5      0x4  Code  Gb  xlocale_c.o [4]
_gLocale_wctombInt      0x0800aedd      0x4  Code  Gb  xlocale_c.o [4]
_hActiveTimer           0x20014774      0x4  Data  Lc  GUI_Timer.o [3]
_hFirstTimer            0x20014770      0x4  Data  Lc  GUI_Timer.o [3]
_main                   0x0801e333           Code  Gb  cmain.o [6]
_pConvert               0x20014624      0x4  Data  Lc  GUI__Alpha.o [3]
_pCurrent               0x20014620      0x4  Data  Lc  GUI__Alpha.o [3]
_pData                  0x20014628      0x4  Data  Lc  GUI__Alpha.o [3]
_pEffectDefault         0x2000010c      0x4  Data  Gb  WIDGET.o [3]
_pFirstExit             0x2001412c      0x4  Data  Lc  GUI_Core.o [3]
_pFirstInit             0x20014130      0x4  Data  Lc  GUI_Core.o [3]
_pFuncControlHook       0x2001467c      0x4  Data  Lc  GUI__ManageCache.o [3]
_pFuncRefreshHook       0x20014678      0x4  Data  Lc  GUI__ManageCache.o [3]
_pRead                  0x200002f4      0x4  Data  Lc  GUI_PID.o [3]
_pReadKey               0x20000110      0x4  Data  Lc  GUI_OnKey.o [3]
_pSave                  0x2001475c      0x4  Data  Lc  GUI_Task.o [3]
_pWrite                 0x200002f8      0x4  Data  Lc  GUI_PID.o [3]
_pWriteKey              0x20000114      0x4  Data  Lc  GUI_OnKey.o [3]
_pcbMotion              0x200145d4      0x4  Data  Lc  WM_Touch.o [3]
_pcbSetAlpha            0x20014958      0x4  Data  Lc  GUIDEV_Banding.o [3]
_pcbToolTip             0x200145d8      0x4  Data  Lc  WM_Touch.o [3]
_pfAlphaBlending        0x2001463c      0x4  Data  Lc  GUI__Alpha.o [3]
_pfCalibrate            0x200147f0      0x4  Data  Lc  GUI_TOUCH.o [3]
_pfColor2IndexBulk      0x20014850      0x4  Data  Lc  GUICC_M565.o [3]
_pfDrawMemdev16bppFunc  0x2001495c      0x4  Data  Lc  GUIDEV_16.o [3]
_pfHook                 0x20014214      0x4  Data  Lc  GUI_OnKey.o [3]
_pfHookPost             0x200142b8      0x4  Data  Lc  GUI_PID.o [3]
_pfHookPre              0x200142bc      0x4  Data  Lc  GUI_PID.o [3]
_pfIndex2ColorBulk      0x20014854      0x4  Data  Lc  GUICC_M565.o [3]
_pfOnPidStateChange     0x200148ec      0x4  Data  Lc  BUTTON.o [3]
_pfOnTouch              0x20000054      0x4  Data  Lc  BUTTON.o [3]
_pfPaletteConversionHook
                        0x20014800      0x4  Data  Lc  LCD_Color.o [3]
_pfReadPixel_16bpp_B16  0x200000fc      0x4  Data  Lc  GUIDRV_FlexColor_Func66709.o [3]
_pfReadRect_16bpp_B16   0x20000100      0x4  Data  Lc  GUIDRV_FlexColor_Func66709.o [3]
_pfSignalEvent          0x20014858      0x4  Data  Lc  GUI_WaitEvent.o [3]
_pfWaitEventTimed       0x2001485c      0x4  Data  Lc  GUI_WaitEvent.o [3]
_xPhys                  0x2001457c      0x4  Data  Lc  GUI_TOUCH_DriverAnalog.o [3]
_xSize                  0x20014618      0x4  Data  Lc  GUI_TOUCH_Calibrate.o [3]
_xSizeDisplay           0x20014860      0x4  Data  Lc  LCD_GetEx.o [3]
_yPhys                  0x20014580      0x4  Data  Lc  GUI_TOUCH_DriverAnalog.o [3]
_ySize                  0x2001461c      0x4  Data  Lc  GUI_TOUCH_Calibrate.o [3]
_ySizeDisplay           0x20014864      0x4  Data  Lc  LCD_GetEx.o [3]
aID                     0x0801cde4     0x40  Data  Lc  GUIDEV_32.o [3]
aLockCnt.8995           0x20014680      0x8  Data  Lc  GUI__ManageCache.o [3]
aMemory                 0x2001487c      0x4  Data  Gb  GUIConf.o [1]
aSin                    0x0801dad6     0x22  Data  Lc  GUI_DrawLine.o [3]
aTan                    0x0801daf8     0x22  Data  Gb  GUI_DrawLine.o [3]
abort                   0x0800c379      0x6  Code  Gb  abort.o [4]
abs                     0x080099f5      0x8  Code  Gb  abs.o [4]
acFont13ASCII_0020      0x08012c85      0xd  Data  Lc  F13_ASCII.o [3]
acFont13ASCII_0021      0x08012c78      0xd  Data  Lc  F13_ASCII.o [3]
acFont13ASCII_0022      0x08012c6b      0xd  Data  Lc  F13_ASCII.o [3]
acFont13ASCII_0023      0x08012c5e      0xd  Data  Lc  F13_ASCII.o [3]
acFont13ASCII_0024      0x08012c51      0xd  Data  Lc  F13_ASCII.o [3]
acFont13ASCII_0025      0x08012c37     0x1a  Data  Lc  F13_ASCII.o [3]
acFont13ASCII_0026      0x08012c2a      0xd  Data  Lc  F13_ASCII.o [3]
acFont13ASCII_0027      0x08012c1d      0xd  Data  Lc  F13_ASCII.o [3]
acFont13ASCII_0028      0x08012c10      0xd  Data  Lc  F13_ASCII.o [3]
acFont13ASCII_0029      0x08012c03      0xd  Data  Lc  F13_ASCII.o [3]
acFont13ASCII_002A      0x08012bf6      0xd  Data  Lc  F13_ASCII.o [3]
acFont13ASCII_002B      0x08012be9      0xd  Data  Lc  F13_ASCII.o [3]
acFont13ASCII_002C      0x08012bdc      0xd  Data  Lc  F13_ASCII.o [3]
acFont13ASCII_002D      0x08012bcf      0xd  Data  Lc  F13_ASCII.o [3]
acFont13ASCII_002E      0x08012bc2      0xd  Data  Lc  F13_ASCII.o [3]
acFont13ASCII_002F      0x08012bb5      0xd  Data  Lc  F13_ASCII.o [3]
acFont13ASCII_0030      0x08012ba8      0xd  Data  Lc  F13_ASCII.o [3]
acFont13ASCII_0031      0x08012b9b      0xd  Data  Lc  F13_ASCII.o [3]
acFont13ASCII_0032      0x08012b8e      0xd  Data  Lc  F13_ASCII.o [3]
acFont13ASCII_0033      0x08012b81      0xd  Data  Lc  F13_ASCII.o [3]
acFont13ASCII_0034      0x08012b74      0xd  Data  Lc  F13_ASCII.o [3]
acFont13ASCII_0035      0x08012b67      0xd  Data  Lc  F13_ASCII.o [3]
acFont13ASCII_0036      0x08012b5a      0xd  Data  Lc  F13_ASCII.o [3]
acFont13ASCII_0037      0x08012b4d      0xd  Data  Lc  F13_ASCII.o [3]
acFont13ASCII_0038      0x08012b40      0xd  Data  Lc  F13_ASCII.o [3]
acFont13ASCII_0039      0x08012b33      0xd  Data  Lc  F13_ASCII.o [3]
acFont13ASCII_003A      0x08012b26      0xd  Data  Lc  F13_ASCII.o [3]
acFont13ASCII_003B      0x08012b19      0xd  Data  Lc  F13_ASCII.o [3]
acFont13ASCII_003C      0x08012b0c      0xd  Data  Lc  F13_ASCII.o [3]
acFont13ASCII_003D      0x08012aff      0xd  Data  Lc  F13_ASCII.o [3]
acFont13ASCII_003E      0x08012af2      0xd  Data  Lc  F13_ASCII.o [3]
acFont13ASCII_003F      0x08012ae5      0xd  Data  Lc  F13_ASCII.o [3]
acFont13ASCII_0040      0x08012acb     0x1a  Data  Lc  F13_ASCII.o [3]
acFont13ASCII_0041      0x08012abe      0xd  Data  Lc  F13_ASCII.o [3]
acFont13ASCII_0042      0x08012ab1      0xd  Data  Lc  F13_ASCII.o [3]
acFont13ASCII_0043      0x08012aa4      0xd  Data  Lc  F13_ASCII.o [3]
acFont13ASCII_0044      0x08012a97      0xd  Data  Lc  F13_ASCII.o [3]
acFont13ASCII_0045      0x08012a8a      0xd  Data  Lc  F13_ASCII.o [3]
acFont13ASCII_0046      0x08012a7d      0xd  Data  Lc  F13_ASCII.o [3]
acFont13ASCII_0047      0x08012a70      0xd  Data  Lc  F13_ASCII.o [3]
acFont13ASCII_0048      0x08012a63      0xd  Data  Lc  F13_ASCII.o [3]
acFont13ASCII_0049      0x08012a56      0xd  Data  Lc  F13_ASCII.o [3]
acFont13ASCII_004A      0x08012a49      0xd  Data  Lc  F13_ASCII.o [3]
acFont13ASCII_004B      0x08012a3c      0xd  Data  Lc  F13_ASCII.o [3]
acFont13ASCII_004C      0x08012a2f      0xd  Data  Lc  F13_ASCII.o [3]
acFont13ASCII_004D      0x08012a22      0xd  Data  Lc  F13_ASCII.o [3]
acFont13ASCII_004E      0x08012a15      0xd  Data  Lc  F13_ASCII.o [3]
acFont13ASCII_004F      0x08012a08      0xd  Data  Lc  F13_ASCII.o [3]
acFont13ASCII_0050      0x080129fb      0xd  Data  Lc  F13_ASCII.o [3]
acFont13ASCII_0051      0x080129ee      0xd  Data  Lc  F13_ASCII.o [3]
acFont13ASCII_0052      0x080129e1      0xd  Data  Lc  F13_ASCII.o [3]
acFont13ASCII_0053      0x080129d4      0xd  Data  Lc  F13_ASCII.o [3]
acFont13ASCII_0054      0x080129c7      0xd  Data  Lc  F13_ASCII.o [3]
acFont13ASCII_0055      0x080129ba      0xd  Data  Lc  F13_ASCII.o [3]
acFont13ASCII_0056      0x080129ad      0xd  Data  Lc  F13_ASCII.o [3]
acFont13ASCII_0057      0x08012993     0x1a  Data  Lc  F13_ASCII.o [3]
acFont13ASCII_0058      0x08012986      0xd  Data  Lc  F13_ASCII.o [3]
acFont13ASCII_0059      0x08012979      0xd  Data  Lc  F13_ASCII.o [3]
acFont13ASCII_005A      0x0801296c      0xd  Data  Lc  F13_ASCII.o [3]
acFont13ASCII_005B      0x0801295f      0xd  Data  Lc  F13_ASCII.o [3]
acFont13ASCII_005C      0x08012952      0xd  Data  Lc  F13_ASCII.o [3]
acFont13ASCII_005D      0x08012945      0xd  Data  Lc  F13_ASCII.o [3]
acFont13ASCII_005E      0x08012938      0xd  Data  Lc  F13_ASCII.o [3]
acFont13ASCII_005F      0x0801292b      0xd  Data  Lc  F13_ASCII.o [3]
acFont13ASCII_0060      0x0801291e      0xd  Data  Lc  F13_ASCII.o [3]
acFont13ASCII_0061      0x08012911      0xd  Data  Lc  F13_ASCII.o [3]
acFont13ASCII_0062      0x08012904      0xd  Data  Lc  F13_ASCII.o [3]
acFont13ASCII_0063      0x080128f7      0xd  Data  Lc  F13_ASCII.o [3]
acFont13ASCII_0064      0x080128ea      0xd  Data  Lc  F13_ASCII.o [3]
acFont13ASCII_0065      0x080128dd      0xd  Data  Lc  F13_ASCII.o [3]
acFont13ASCII_0066      0x080128d0      0xd  Data  Lc  F13_ASCII.o [3]
acFont13ASCII_0067      0x080128c3      0xd  Data  Lc  F13_ASCII.o [3]
acFont13ASCII_0068      0x080128b6      0xd  Data  Lc  F13_ASCII.o [3]
acFont13ASCII_0069      0x080128a9      0xd  Data  Lc  F13_ASCII.o [3]
acFont13ASCII_006A      0x0801289c      0xd  Data  Lc  F13_ASCII.o [3]
acFont13ASCII_006B      0x0801288f      0xd  Data  Lc  F13_ASCII.o [3]
acFont13ASCII_006C      0x08012882      0xd  Data  Lc  F13_ASCII.o [3]
acFont13ASCII_006D      0x08012875      0xd  Data  Lc  F13_ASCII.o [3]
acFont13ASCII_006E      0x08012868      0xd  Data  Lc  F13_ASCII.o [3]
acFont13ASCII_006F      0x0801285b      0xd  Data  Lc  F13_ASCII.o [3]
acFont13ASCII_0070      0x0801284e      0xd  Data  Lc  F13_ASCII.o [3]
acFont13ASCII_0071      0x08012841      0xd  Data  Lc  F13_ASCII.o [3]
acFont13ASCII_0072      0x08012834      0xd  Data  Lc  F13_ASCII.o [3]
acFont13ASCII_0073      0x08012827      0xd  Data  Lc  F13_ASCII.o [3]
acFont13ASCII_0074      0x0801281a      0xd  Data  Lc  F13_ASCII.o [3]
acFont13ASCII_0075      0x0801280d      0xd  Data  Lc  F13_ASCII.o [3]
acFont13ASCII_0076      0x08012800      0xd  Data  Lc  F13_ASCII.o [3]
acFont13ASCII_0077      0x080127f3      0xd  Data  Lc  F13_ASCII.o [3]
acFont13ASCII_0078      0x080127e6      0xd  Data  Lc  F13_ASCII.o [3]
acFont13ASCII_0079      0x080127d9      0xd  Data  Lc  F13_ASCII.o [3]
acFont13ASCII_007A      0x080127cc      0xd  Data  Lc  F13_ASCII.o [3]
acFont13ASCII_007B      0x080127bf      0xd  Data  Lc  F13_ASCII.o [3]
acFont13ASCII_007C      0x080127b2      0xd  Data  Lc  F13_ASCII.o [3]
acFont13ASCII_007D      0x080127a5      0xd  Data  Lc  F13_ASCII.o [3]
acFont13ASCII_007E      0x08012798      0xd  Data  Lc  F13_ASCII.o [3]
acFont13_1_00A0         0x08012462      0xd  Data  Lc  F13_1.o [3]
acFont13_1_00A1         0x08012455      0xd  Data  Lc  F13_1.o [3]
acFont13_1_00A2         0x08012448      0xd  Data  Lc  F13_1.o [3]
acFont13_1_00A3         0x0801243b      0xd  Data  Lc  F13_1.o [3]
acFont13_1_00A4         0x0801242e      0xd  Data  Lc  F13_1.o [3]
acFont13_1_00A5         0x08012421      0xd  Data  Lc  F13_1.o [3]
acFont13_1_00A6         0x08012414      0xd  Data  Lc  F13_1.o [3]
acFont13_1_00A7         0x08012407      0xd  Data  Lc  F13_1.o [3]
acFont13_1_00A8         0x080123fa      0xd  Data  Lc  F13_1.o [3]
acFont13_1_00A9         0x080123e0     0x1a  Data  Lc  F13_1.o [3]
acFont13_1_00AA         0x080123d3      0xd  Data  Lc  F13_1.o [3]
acFont13_1_00AB         0x080123c6      0xd  Data  Lc  F13_1.o [3]
acFont13_1_00AC         0x080123b9      0xd  Data  Lc  F13_1.o [3]
acFont13_1_00AD         0x080123ac      0xd  Data  Lc  F13_1.o [3]
acFont13_1_00AE         0x08012392     0x1a  Data  Lc  F13_1.o [3]
acFont13_1_00AF         0x08012385      0xd  Data  Lc  F13_1.o [3]
acFont13_1_00B0         0x08012378      0xd  Data  Lc  F13_1.o [3]
acFont13_1_00B1         0x0801236b      0xd  Data  Lc  F13_1.o [3]
acFont13_1_00B2         0x0801235e      0xd  Data  Lc  F13_1.o [3]
acFont13_1_00B3         0x08012351      0xd  Data  Lc  F13_1.o [3]
acFont13_1_00B4         0x08012344      0xd  Data  Lc  F13_1.o [3]
acFont13_1_00B5         0x08012337      0xd  Data  Lc  F13_1.o [3]
acFont13_1_00B6         0x0801232a      0xd  Data  Lc  F13_1.o [3]
acFont13_1_00B7         0x0801231d      0xd  Data  Lc  F13_1.o [3]
acFont13_1_00B8         0x08012310      0xd  Data  Lc  F13_1.o [3]
acFont13_1_00B9         0x08012303      0xd  Data  Lc  F13_1.o [3]
acFont13_1_00BA         0x080122f6      0xd  Data  Lc  F13_1.o [3]
acFont13_1_00BB         0x080122e9      0xd  Data  Lc  F13_1.o [3]
acFont13_1_00BC         0x080122cf     0x1a  Data  Lc  F13_1.o [3]
acFont13_1_00BD         0x080122b5     0x1a  Data  Lc  F13_1.o [3]
acFont13_1_00BE         0x0801229b     0x1a  Data  Lc  F13_1.o [3]
acFont13_1_00BF         0x0801228e      0xd  Data  Lc  F13_1.o [3]
acFont13_1_00C0         0x08012281      0xd  Data  Lc  F13_1.o [3]
acFont13_1_00C1         0x08012274      0xd  Data  Lc  F13_1.o [3]
acFont13_1_00C2         0x08012267      0xd  Data  Lc  F13_1.o [3]
acFont13_1_00C3         0x0801225a      0xd  Data  Lc  F13_1.o [3]
acFont13_1_00C4         0x0801224d      0xd  Data  Lc  F13_1.o [3]
acFont13_1_00C5         0x08012240      0xd  Data  Lc  F13_1.o [3]
acFont13_1_00C6         0x08012226     0x1a  Data  Lc  F13_1.o [3]
acFont13_1_00C7         0x08012219      0xd  Data  Lc  F13_1.o [3]
acFont13_1_00C8         0x0801220c      0xd  Data  Lc  F13_1.o [3]
acFont13_1_00C9         0x080121ff      0xd  Data  Lc  F13_1.o [3]
acFont13_1_00CA         0x080121f2      0xd  Data  Lc  F13_1.o [3]
acFont13_1_00CB         0x080121e5      0xd  Data  Lc  F13_1.o [3]
acFont13_1_00CC         0x080121d8      0xd  Data  Lc  F13_1.o [3]
acFont13_1_00CD         0x080121cb      0xd  Data  Lc  F13_1.o [3]
acFont13_1_00CE         0x080121be      0xd  Data  Lc  F13_1.o [3]
acFont13_1_00CF         0x080121b1      0xd  Data  Lc  F13_1.o [3]
acFont13_1_00D0         0x080121a4      0xd  Data  Lc  F13_1.o [3]
acFont13_1_00D1         0x08012197      0xd  Data  Lc  F13_1.o [3]
acFont13_1_00D2         0x0801218a      0xd  Data  Lc  F13_1.o [3]
acFont13_1_00D3         0x0801217d      0xd  Data  Lc  F13_1.o [3]
acFont13_1_00D4         0x08012170      0xd  Data  Lc  F13_1.o [3]
acFont13_1_00D5         0x08012163      0xd  Data  Lc  F13_1.o [3]
acFont13_1_00D6         0x08012156      0xd  Data  Lc  F13_1.o [3]
acFont13_1_00D7         0x08012149      0xd  Data  Lc  F13_1.o [3]
acFont13_1_00D8         0x0801213c      0xd  Data  Lc  F13_1.o [3]
acFont13_1_00D9         0x0801212f      0xd  Data  Lc  F13_1.o [3]
acFont13_1_00DA         0x08012122      0xd  Data  Lc  F13_1.o [3]
acFont13_1_00DB         0x08012115      0xd  Data  Lc  F13_1.o [3]
acFont13_1_00DC         0x08012108      0xd  Data  Lc  F13_1.o [3]
acFont13_1_00DD         0x080120fb      0xd  Data  Lc  F13_1.o [3]
acFont13_1_00DE         0x080120ee      0xd  Data  Lc  F13_1.o [3]
acFont13_1_00DF         0x080120e1      0xd  Data  Lc  F13_1.o [3]
acFont13_1_00E0         0x080120d4      0xd  Data  Lc  F13_1.o [3]
acFont13_1_00E1         0x080120c7      0xd  Data  Lc  F13_1.o [3]
acFont13_1_00E2         0x080120ba      0xd  Data  Lc  F13_1.o [3]
acFont13_1_00E3         0x080120ad      0xd  Data  Lc  F13_1.o [3]
acFont13_1_00E4         0x080120a0      0xd  Data  Lc  F13_1.o [3]
acFont13_1_00E5         0x08012093      0xd  Data  Lc  F13_1.o [3]
acFont13_1_00E6         0x08012079     0x1a  Data  Lc  F13_1.o [3]
acFont13_1_00E7         0x0801206c      0xd  Data  Lc  F13_1.o [3]
acFont13_1_00E8         0x0801205f      0xd  Data  Lc  F13_1.o [3]
acFont13_1_00E9         0x08012052      0xd  Data  Lc  F13_1.o [3]
acFont13_1_00EA         0x08012045      0xd  Data  Lc  F13_1.o [3]
acFont13_1_00EB         0x08012038      0xd  Data  Lc  F13_1.o [3]
acFont13_1_00EC         0x0801202b      0xd  Data  Lc  F13_1.o [3]
acFont13_1_00ED         0x0801201e      0xd  Data  Lc  F13_1.o [3]
acFont13_1_00EE         0x08012011      0xd  Data  Lc  F13_1.o [3]
acFont13_1_00EF         0x08012004      0xd  Data  Lc  F13_1.o [3]
acFont13_1_00F0         0x08011ff7      0xd  Data  Lc  F13_1.o [3]
acFont13_1_00F1         0x08011fea      0xd  Data  Lc  F13_1.o [3]
acFont13_1_00F2         0x08011fdd      0xd  Data  Lc  F13_1.o [3]
acFont13_1_00F3         0x08011fd0      0xd  Data  Lc  F13_1.o [3]
acFont13_1_00F4         0x08011fc3      0xd  Data  Lc  F13_1.o [3]
acFont13_1_00F5         0x08011fb6      0xd  Data  Lc  F13_1.o [3]
acFont13_1_00F6         0x08011fa9      0xd  Data  Lc  F13_1.o [3]
acFont13_1_00F7         0x08011f9c      0xd  Data  Lc  F13_1.o [3]
acFont13_1_00F8         0x08011f8f      0xd  Data  Lc  F13_1.o [3]
acFont13_1_00F9         0x08011f82      0xd  Data  Lc  F13_1.o [3]
acFont13_1_00FA         0x08011f75      0xd  Data  Lc  F13_1.o [3]
acFont13_1_00FB         0x08011f68      0xd  Data  Lc  F13_1.o [3]
acFont13_1_00FC         0x08011f5b      0xd  Data  Lc  F13_1.o [3]
acFont13_1_00FD         0x08011f4e      0xd  Data  Lc  F13_1.o [3]
acFont13_1_00FE         0x08011f41      0xd  Data  Lc  F13_1.o [3]
acFont13_1_00FF         0x08011f34      0xd  Data  Lc  F13_1.o [3]
asc2_1206               0x08016b3c    0x474  Data  Gb  ILI93xx.o [1]
asc2_1608               0x080142d0    0x5f0  Data  Gb  ILI93xx.o [1]
asc2_2412               0x08010ea8    0xd5c  Data  Gb  ILI93xx.o [1]
axRef.9609              0x20014584      0x8  Data  Lc  GUI_TOUCH_DriverAnalog.o [3]
axSample.9611           0x2001458c      0x8  Data  Lc  GUI_TOUCH_DriverAnalog.o [3]
ayRef.9610              0x20014594      0x8  Data  Lc  GUI_TOUCH_DriverAnalog.o [3]
aySample.9612           0x2001459c      0x8  Data  Lc  GUI_TOUCH_DriverAnalog.o [3]
calendar                0x20014784     0x10  Data  Gb  ds3231.o [1]
delay_ms                0x080096a9      0xc  Code  Gb  delay.o [1]
delay_us                0x08009651     0x54  Code  Gb  delay.o [1]
emWin_LCD_Init          0x08009fd5     0xa4  Code  Gb  LCD.o [3]
exit                    0x0801e33b      0x4  Code  Gb  exit.o [4]
flash_tp_dve            0x200147a4     0x10  Data  Gb  touch.o [1]
fputc                   0x08003afb     0x18  Code  Gb  usart.o [1]
hcrc                    0x20014818      0x8  Data  Gb  crc.o [1]
hi2c1                   0x200142c8     0x54  Data  Gb  i2c.o [1]
hspi1                   0x20014218     0x58  Data  Gb  spi.o [1]
hsram1                  0x2001431c     0x50  Data  Gb  fsmc.o [1]
huart1                  0x20014488     0x40  Data  Gb  usart.o [1]
huart2                  0x200144c8     0x40  Data  Gb  usart.o [1]
huart3                  0x20014508     0x40  Data  Gb  usart.o [1]
huart4                  0x20014448     0x40  Data  Gb  usart.o [1]
iWin.10693              0x20014574      0x4  Data  Lc  WM.o [3]
lcddev                  0x20014794     0x10  Data  Gb  ILI93xx.o [1]
ldexp                   0x0800b119           Code  Gb  ldexp.o [5]
ldexpl                  0x0800b119           Code  Gb  ldexp.o [5]
localeconv              0x0800aee9      0x4  Code  Gb  xlocale_c.o [4]
main                    0x08002bd9     0x8e  Code  Gb  main.o [1]
memchr                  0x0800af95           Code  Gb  memchr.o [6]
memcmp                  0x0800b645           Code  Gb  memcmp.o [6]
memcpy                  0x0800bccd      0xc  Code  Gb  memcpy.o [6]
memmove                 0x0800eae9      0xc  Code  Gb  memmove.o [6]
memset                  0x0800c053     0x14  Code  Gb  memset.o [6]
obuf                    0x2001436c     0x50  Data  Lc  xfiles.o [4]
pcInterruptPriorityRegisters
                        0x0801e810      0x4  Data  Lc  port.o [1]
pfSetRect.9753          0x20014640      0x4  Data  Lc  GUIDRV_FlexColor.o [3]
printf                  0x080052c5     0x28  Code  Gb  printf.o [4]
prvAddCurrentTaskToDelayedList
                        0x08004e29     0x7e  Code  Lc  tasks.o [1]
prvAddNewTaskToReadyList
                        0x08004525     0xc2  Code  Lc  tasks.o [1]
prvCheckForValidListAndQueue
                        0x08008625     0x4c  Code  Lc  timers.o [1]
prvCheckTasksWaitingTermination
                        0x08004bb9     0x64  Code  Lc  tasks.o [1]
prvCopyDataFromQueue    0x0800ad2d     0x30  Code  Lc  queue.o [1]
prvCopyDataToQueue      0x0800ac95     0x98  Code  Lc  queue.o [1]
prvDeleteTCB            0x08004c1d     0x12  Code  Lc  tasks.o [1]
prvGetNextExpireTime    0x0800841f     0x2a  Code  Lc  timers.o [1]
prvHeapInit             0x08007e29     0x66  Code  Lc  heap_4.o [1]
prvIdleTask             0x08004b39     0x26  Code  Lc  tasks.o [1]
prvInitialiseMutex      0x0800a7f9     0x22  Code  Lc  queue.o [1]
prvInitialiseNewQueue   0x0800a7c3     0x36  Code  Lc  queue.o [1]
prvInitialiseNewTask    0x08004445     0xe0  Code  Lc  tasks.o [1]
prvInitialiseTaskLists  0x08004b5f     0x5a  Code  Lc  tasks.o [1]
prvInsertBlockIntoFreeList
                        0x08007e8f     0x60  Code  Lc  heap_4.o [1]
prvInsertTimerInActiveList
                        0x08008471     0x50  Code  Lc  timers.o [1]
prvIsQueueEmpty         0x0800adcb     0x1c  Code  Lc  queue.o [1]
prvIsQueueFull          0x0800ade7     0x1e  Code  Lc  queue.o [1]
prvProcessExpiredTimer  0x08008335     0x5c  Code  Lc  timers.o [1]
prvProcessReceivedCommands
                        0x080084c1     0xde  Code  Lc  timers.o [1]
prvProcessTimerOrBlockTask
                        0x080083af     0x70  Code  Lc  timers.o [1]
prvResetNextTaskUnblockTime
                        0x08004c2f     0x2a  Code  Lc  tasks.o [1]
prvSampleTimeNow        0x08008449     0x28  Code  Lc  timers.o [1]
prvSampleTimeNow::xLastTime
                        0x200148e8      0x4  Data  Lc  timers.o [1]
prvSwitchTimerLists     0x0800859f     0x86  Code  Lc  timers.o [1]
prvTaskExitError        0x08008035     0x2a  Code  Lc  port.o [1]
prvTimerTask            0x08008395     0x1a  Code  Lc  timers.o [1]
prvUnlockQueue          0x0800ad5d     0x6e  Code  Lc  queue.o [1]
putchar                 0x0801e485      0xc  Code  Gb  putchar.o [4]
pvPortMalloc            0x08007c95    0x11a  Code  Gb  heap_4.o [1]
pvTaskIncrementMutexHeldCount
                        0x08004deb     0x1e  Code  Gb  tasks.o [1]
pxCurrentTCB            0x2001489c      0x4  Data  Gb  tasks.o [1]
pxCurrentTimerList      0x200148d8      0x4  Data  Lc  timers.o [1]
pxDelayedTaskList       0x200148a0      0x4  Data  Lc  tasks.o [1]
pxEnd                   0x20014880      0x4  Data  Lc  heap_4.o [1]
pxOverflowDelayedTaskList
                        0x200148a4      0x4  Data  Lc  tasks.o [1]
pxOverflowTimerList     0x200148dc      0x4  Data  Lc  timers.o [1]
pxPortInitialiseStack   0x0800800d     0x28  Code  Gb  port.o [1]
pxReadyTasksLists       0x20014154     0x64  Data  Lc  tasks.o [1]
recv_buf                0x200146a8     0x14  Data  Gb  main.o [1]
recv_buf1               0x200146bc     0x14  Data  Gb  main.o [1]
scalbln                 0x0800b119           Code  Gb  ldexp.o [5]
scalblnl                0x0800b119           Code  Gb  ldexp.o [5]
scalbn                  0x0800b119           Code  Gb  ldexp.o [5]
scalbnl                 0x0800b119           Code  Gb  ldexp.o [5]
scale                   0x08008ea3     0x46  Code  Lc  xprintffull.o [4]
sec_hand                0x20014964      0x4  Data  Lc  xfail_s.o [4]
sgp30_data              0x20014890      0x4  Data  Gb  mylib.o [1]
sgp30_init              0x0800517b     0x36  Code  Gb  mylib.o [1]
sgp30_send_cmd          0x08005135     0x28  Code  Lc  mylib.o [1]
sgp30_soft_reset        0x0800515d     0x1e  Code  Lc  mylib.o [1]
sgp30_start             0x080051b1      0xc  Code  Lc  mylib.o [1]
spg30_read              0x080051fb     0xae  Code  Gb  mylib.o [1]
sqrt                    0x08009a41           Code  Gb  sqrt.o [5]
sqrtl                   0x08009a41           Code  Gb  sqrt.o [5]
strchr                  0x0800aef5           Code  Gb  strchr.o [6]
strcpy                  0x0800ccf9           Code  Gb  strcpy.o [6]
strlen                  0x0800af59           Code  Gb  strlen.o [6]
tp_dev                  0x2000000c     0x48  Data  Gb  touch.o [1]
ucHeap                  0x200003ec  0x12c00  Data  Lc  heap_4.o [1]
ucMaxSysCallPriority    0x200145a7      0x1  Data  Lc  port.o [1]
ulMaxPRIGROUPValue      0x20014894      0x4  Data  Lc  port.o [1]
uwTick                  0x20014898      0x4  Data  Gb  stm32f4xx_hal.o [1]
uwTickFreq              0x200003de      0x1  Data  Gb  stm32f4xx_hal.o [1]
uwTickPrio              0x20000004      0x4  Data  Gb  stm32f4xx_hal.o [1]
uxCriticalNesting       0x20000000      0x4  Data  Lc  port.o [1]
uxCurrentNumberOfTasks  0x200148ac      0x4  Data  Lc  tasks.o [1]
uxDeletedTasksWaitingCleanUp
                        0x200148a8      0x4  Data  Lc  tasks.o [1]
uxListRemove            0x08007fe5     0x28  Code  Gb  list.o [1]
uxPendedTicks           0x200148bc      0x4  Data  Lc  tasks.o [1]
uxSchedulerSuspended    0x200148d4      0x4  Data  Lc  tasks.o [1]
uxTaskNumber            0x200148c8      0x4  Data  Lc  tasks.o [1]
uxTopReadyPriority      0x200148b4      0x4  Data  Lc  tasks.o [1]
vListInitialise         0x08007f73     0x1e  Code  Gb  list.o [1]
vListInitialiseItem     0x08007f91      0x6  Code  Gb  list.o [1]
vListInsert             0x08007faf     0x36  Code  Gb  list.o [1]
vListInsertEnd          0x08007f97     0x18  Code  Gb  list.o [1]
vPortEnableVFP          0x0800a6b9           Code  Gb  portasm.o [1]
vPortEnterCritical      0x0800812b     0x3a  Code  Gb  port.o [1]
vPortExitCritical       0x08008165     0x32  Code  Gb  port.o [1]
vPortFree               0x08007daf     0x7a  Code  Gb  heap_4.o [1]
vPortStartFirstTask     0x0800a6a1           Code  Gb  portasm.o [1]
vPortValidateInterruptPriority
                        0x080081c1     0x4e  Code  Gb  port.o [1]
vQueueAddToRegistry     0x0800ae05     0x26  Code  Gb  queue.o [1]
vQueueWaitForMessageRestricted
                        0x0800ae35     0x4c  Code  Gb  queue.o [1]
vTaskDelay              0x080045e7     0x4e  Code  Gb  tasks.o [1]
vTaskMissedYield        0x08004b27      0xa  Code  Gb  tasks.o [1]
vTaskPlaceOnEventList   0x08004965     0x34  Code  Gb  tasks.o [1]
vTaskPlaceOnEventListRestricted
                        0x080049a5     0x40  Code  Gb  tasks.o [1]
vTaskPriorityInherit    0x08004c83     0xae  Code  Gb  tasks.o [1]
vTaskSetTimeOutState    0x08004a79     0x26  Code  Gb  tasks.o [1]
vTaskStartScheduler     0x08004635     0x72  Code  Gb  tasks.o [1]
vTaskSuspendAll         0x080046a7     0x10  Code  Gb  tasks.o [1]
vTaskSwitchContext      0x080048ed     0x6e  Code  Gb  tasks.o [1]
x0.9866                 0x20014648      0x4  Data  Lc  GUIDRV_FlexColor.o [3]
x1.9868                 0x20014650      0x4  Data  Lc  GUIDRV_FlexColor.o [3]
xActiveTimerList1       0x20014734     0x14  Data  Lc  timers.o [1]
xActiveTimerList2       0x20014748     0x14  Data  Lc  timers.o [1]
xBlockAllocatedBit      0x2001488c      0x4  Data  Lc  heap_4.o [1]
xDelayedTaskList1       0x200146d0     0x14  Data  Lc  tasks.o [1]
xDelayedTaskList2       0x200146e4     0x14  Data  Lc  tasks.o [1]
xFreeBytesRemaining     0x20014884      0x4  Data  Lc  heap_4.o [1]
xHeapStructSize         0x0801e80c      0x4  Data  Lc  heap_4.o [1]
xIdleTaskHandle         0x200148d0      0x4  Data  Lc  tasks.o [1]
xLast.9626              0x20000104      0x4  Data  Lc  GUI_TOUCH_DriverAnalog.o [3]
xMinimumEverFreeBytesRemaining
                        0x20014888      0x4  Data  Lc  heap_4.o [1]
xNextTaskUnblockTime    0x200148cc      0x4  Data  Lc  tasks.o [1]
xNumOfOverflows         0x200148c4      0x4  Data  Lc  tasks.o [1]
xPendingReadyList       0x200146f8     0x14  Data  Lc  tasks.o [1]
xPortStartScheduler     0x0800805f     0xcc  Code  Gb  port.o [1]
xPortSysTickHandler     0x08008197     0x28  Code  Gb  port.o [1]
xQueueCreateMutex       0x0800a81b     0x20  Code  Gb  queue.o [1]
xQueueGenericCreate     0x0800a76d     0x56  Code  Gb  queue.o [1]
xQueueGenericReceive    0x0800aabf    0x1d6  Code  Gb  queue.o [1]
xQueueGenericReset      0x0800a6d5     0x98  Code  Gb  queue.o [1]
xQueueGenericSend       0x0800a83b    0x1a6  Code  Gb  queue.o [1]
xQueueGenericSendFromISR
                        0x0800a9e1     0xde  Code  Gb  queue.o [1]
xQueueMutex             0x20014874      0x4  Data  Lc  GUI_X_OS.o [1]
xQueueRegistry          0x20014408     0x40  Data  Gb  queue.o [1]
xSchedulerRunning       0x200148b8      0x4  Data  Lc  tasks.o [1]
xSemaTxDone             0x20014878      0x4  Data  Lc  GUI_X_OS.o [1]
xStart                  0x20014820      0x8  Data  Lc  heap_4.o [1]
xSuspendedTaskList      0x20014720     0x14  Data  Lc  tasks.o [1]
xTaskCheckForTimeOut    0x08004aa5     0x82  Code  Gb  tasks.o [1]
xTaskCreate             0x080043cd     0x78  Code  Gb  tasks.o [1]
xTaskGetCurrentTaskHandle
                        0x08004c59      0x8  Code  Gb  tasks.o [1]
xTaskGetSchedulerState  0x08004c63     0x20  Code  Gb  tasks.o [1]
xTaskGetTickCount       0x080047b3      0x8  Code  Gb  tasks.o [1]
xTaskIncrementTick      0x080047bb    0x12a  Code  Gb  tasks.o [1]
xTaskPriorityDisinherit
                        0x08004d31     0xba  Code  Gb  tasks.o [1]
xTaskRemoveFromEventList
                        0x080049e7     0x86  Code  Gb  tasks.o [1]
xTaskResumeAll          0x080046b7     0xfc  Code  Gb  tasks.o [1]
xTasksWaitingTermination
                        0x2001470c     0x14  Data  Lc  tasks.o [1]
xTickCount              0x200148b0      0x4  Data  Lc  tasks.o [1]
xTimerCreateTimerTask   0x08008269     0x48  Code  Gb  timers.o [1]
xTimerGenericCommand    0x080082b1     0x84  Code  Gb  timers.o [1]
xTimerQueue             0x200148e0      0x4  Data  Lc  timers.o [1]
xTimerTaskHandle        0x200148e4      0x4  Data  Lc  timers.o [1]
xYieldPending           0x200148c0      0x4  Data  Lc  tasks.o [1]
y0.9867                 0x2001464c      0x4  Data  Lc  GUIDRV_FlexColor.o [3]
y1.9869                 0x20014654      0x4  Data  Lc  GUIDRV_FlexColor.o [3]
yLast.9627              0x20000108      0x4  Data  Lc  GUI_TOUCH_DriverAnalog.o [3]


[1] = D:\project_file\famil_tnb\EWARM\famil_tnb\Obj
[2] = command line
[3] = STemWin_CM4_OS_wc16.a
[4] = dl7M_tlf.a
[5] = m7M_tls.a
[6] = rt7M_tl.a
[7] = shb_l.a

  105 262 bytes of readonly  code memory
   20 661 bytes of readonly  data memory
   85 367 bytes of readwrite data memory

Errors: none
Warnings: 1
